;;
;; This file was generated by the Retargetable Decompiler
;; Website: https://retdec.com
;; Copyright (c) 2017 Retargetable Decompiler <info@retdec.com>
;;
;; Decompiler release: v2.2.1 (2016-09-07)
;; Decompilation date: 2017-10-05 04:14:40
;; Architecture: x86 (or later and compatible)
;;

;;
;; Code Segment
;;

; section: .init
; function: _init at 0x8048744 -- 0x8048766
0x8048744:   53                              	push ebx
0x8048745:   83 ec 08                        	sub esp, 0x8
0x8048748:   e8 13 02 00 00                  	call 0x8048960 <__x86.get_pc_thunk.bx>
0x804874d:   81 c3 b3 28 00 00               	add ebx, 0x28b3
0x8048753:   8b 83 fc ff ff ff               	mov eax, dword [ ebx + 0xfffffffc ]
0x8048759:   85 c0                           	test eax, eax
0x804875b:   74 05                           	jz 0x8048762 <_init+0x1e>
0x804875d:   e8 be 01 00 00                  	call 0x8048920 <function_8048920>
0x8048762:   83 c4 08                        	add esp, 0x8
0x8048765:   5b                              	pop ebx
0x8048766:   c3                              	ret
; section: .plt
; function: function_8048770 at 0x8048770 -- 0x804891f
0x8048770:   ff 35 04 b0 04 08               	push dword [ 0x804b004 ]
0x8048776:   ff 25 08 b0 04 08               	jmp dword [ 0x804b008 ]
0x804877c:   00 00                           	add byte [ eax ], al
0x804877e:   00 00                           	add byte [ eax ], al
0x8048780:   ff 25 0c b0 04 08               	jmp dword [ 0x804b00c ]
0x8048786:   68 00 00 00 00                  	push 0x0
0x804878b:   e9 e0 ff ff ff                  	jmp 0xffffffe0
0x8048790:   ff 25 10 b0 04 08               	jmp dword [ 0x804b010 ]
0x8048796:   68 08 00 00 00                  	push 0x8
0x804879b:   e9 d0 ff ff ff                  	jmp 0xffffffd0
0x80487a0:   ff 25 14 b0 04 08               	jmp dword [ 0x804b014 ]
0x80487a6:   68 10 00 00 00                  	push 0x10
0x80487ab:   e9 c0 ff ff ff                  	jmp 0xffffffc0
0x80487b0:   ff 25 18 b0 04 08               	jmp dword [ 0x804b018 ]
0x80487b6:   68 18 00 00 00                  	push 0x18
0x80487bb:   e9 b0 ff ff ff                  	jmp 0xffffffb0
0x80487c0:   ff 25 1c b0 04 08               	jmp dword [ 0x804b01c ]
0x80487c6:   68 20 00 00 00                  	push 0x20
0x80487cb:   e9 a0 ff ff ff                  	jmp 0xffffffa0
0x80487d0:   ff 25 20 b0 04 08               	jmp dword [ 0x804b020 ]
0x80487d6:   68 28 00 00 00                  	push 0x28
0x80487db:   e9 90 ff ff ff                  	jmp 0xffffff90
0x80487e0:   ff 25 24 b0 04 08               	jmp dword [ 0x804b024 ]
0x80487e6:   68 30 00 00 00                  	push 0x30
0x80487eb:   e9 80 ff ff ff                  	jmp 0xffffff80
0x80487f0:   ff 25 28 b0 04 08               	jmp dword [ 0x804b028 ]
0x80487f6:   68 38 00 00 00                  	push 0x38
0x80487fb:   e9 70 ff ff ff                  	jmp 0xffffff70
0x8048800:   ff 25 2c b0 04 08               	jmp dword [ 0x804b02c ]
0x8048806:   68 40 00 00 00                  	push 0x40
0x804880b:   e9 60 ff ff ff                  	jmp 0xffffff60
0x8048810:   ff 25 30 b0 04 08               	jmp dword [ 0x804b030 ]
0x8048816:   68 48 00 00 00                  	push 0x48
0x804881b:   e9 50 ff ff ff                  	jmp 0xffffff50
0x8048820:   ff 25 34 b0 04 08               	jmp dword [ 0x804b034 ]
0x8048826:   68 50 00 00 00                  	push 0x50
0x804882b:   e9 40 ff ff ff                  	jmp 0xffffff40
0x8048830:   ff 25 38 b0 04 08               	jmp dword [ 0x804b038 ]
0x8048836:   68 58 00 00 00                  	push 0x58
0x804883b:   e9 30 ff ff ff                  	jmp 0xffffff30
0x8048840:   ff 25 3c b0 04 08               	jmp dword [ 0x804b03c ]
0x8048846:   68 60 00 00 00                  	push 0x60
0x804884b:   e9 20 ff ff ff                  	jmp 0xffffff20
0x8048850:   ff 25 40 b0 04 08               	jmp dword [ 0x804b040 ]
0x8048856:   68 68 00 00 00                  	push 0x68
0x804885b:   e9 10 ff ff ff                  	jmp 0xffffff10
0x8048860:   ff 25 44 b0 04 08               	jmp dword [ 0x804b044 ]
0x8048866:   68 70 00 00 00                  	push 0x70
0x804886b:   e9 00 ff ff ff                  	jmp 0xffffff00
0x8048870:   ff 25 48 b0 04 08               	jmp dword [ 0x804b048 ]
0x8048876:   68 78 00 00 00                  	push 0x78
0x804887b:   e9 f0 fe ff ff                  	jmp 0xfffffef0
0x8048880:   ff 25 4c b0 04 08               	jmp dword [ 0x804b04c ]
0x8048886:   68 80 00 00 00                  	push 0x80
0x804888b:   e9 e0 fe ff ff                  	jmp 0xfffffee0
0x8048890:   ff 25 50 b0 04 08               	jmp dword [ 0x804b050 ]
0x8048896:   68 88 00 00 00                  	push 0x88
0x804889b:   e9 d0 fe ff ff                  	jmp 0xfffffed0
0x80488a0:   ff 25 54 b0 04 08               	jmp dword [ 0x804b054 ]
0x80488a6:   68 90 00 00 00                  	push 0x90
0x80488ab:   e9 c0 fe ff ff                  	jmp 0xfffffec0
0x80488b0:   ff 25 58 b0 04 08               	jmp dword [ 0x804b058 ]
0x80488b6:   68 98 00 00 00                  	push 0x98
0x80488bb:   e9 b0 fe ff ff                  	jmp 0xfffffeb0
0x80488c0:   ff 25 5c b0 04 08               	jmp dword [ 0x804b05c ]
0x80488c6:   68 a0 00 00 00                  	push 0xa0
0x80488cb:   e9 a0 fe ff ff                  	jmp 0xfffffea0
0x80488d0:   ff 25 60 b0 04 08               	jmp dword [ 0x804b060 ]
0x80488d6:   68 a8 00 00 00                  	push 0xa8
0x80488db:   e9 90 fe ff ff                  	jmp 0xfffffe90
0x80488e0:   ff 25 64 b0 04 08               	jmp dword [ 0x804b064 ]
0x80488e6:   68 b0 00 00 00                  	push 0xb0
0x80488eb:   e9 80 fe ff ff                  	jmp 0xfffffe80
0x80488f0:   ff 25 68 b0 04 08               	jmp dword [ 0x804b068 ]
0x80488f6:   68 b8 00 00 00                  	push 0xb8
0x80488fb:   e9 70 fe ff ff                  	jmp 0xfffffe70
0x8048900:   ff 25 6c b0 04 08               	jmp dword [ 0x804b06c ]
0x8048906:   68 c0 00 00 00                  	push 0xc0
0x804890b:   e9 60 fe ff ff                  	jmp 0xfffffe60
0x8048910:   ff 25 70 b0 04 08               	jmp dword [ 0x804b070 ]
0x8048916:   68 c8 00 00 00                  	push 0xc8
0x804891b:   e9 50 fe ff ff                  	jmp 0xfffffe50
; section: .plt.got
; function: function_8048920 at 0x8048920 -- 0x8048927
0x8048920:   ff 25 fc af 04 08               	jmp dword [ 0x804affc <unknown_804affc> ]
0x8048926:   66 90                           	xchg ax, ax
; section: .text
; function: _start at 0x8048930 -- 0x804895f
0x8048930:   31 ed                           	xor ebp, ebp
0x8048932:   5e                              	pop esi
0x8048933:   89 e1                           	mov ecx, esp
0x8048935:   83 e4 f0                        	and esp, 0xfffffff0
0x8048938:   50                              	push eax
0x8048939:   54                              	push esp
0x804893a:   52                              	push edx
0x804893b:   68 70 98 04 08                  	push 0x8049870
0x8048940:   68 10 98 04 08                  	push 0x8049810
0x8048945:   51                              	push ecx
0x8048946:   56                              	push esi
0x8048947:   68 13 97 04 08                  	push 0x8049713
0x804894c:   e8 1f ff ff ff                  	call 0x8048870 <__libc_start_main>
0x8048951:   f4                              	hlt
0x8048952:   66 90                           	xchg ax, ax
0x8048954:   66 90                           	xchg ax, ax
0x8048956:   66 90                           	xchg ax, ax
0x8048958:   66 90                           	xchg ax, ax
0x804895a:   66 90                           	xchg ax, ax
0x804895c:   66 90                           	xchg ax, ax
0x804895e:   66 90                           	xchg ax, ax
; function: __x86.get_pc_thunk.bx at 0x8048960 -- 0x804896f
0x8048960:   8b 1c 24                        	mov ebx, dword [ esp ]
0x8048963:   c3                              	ret
0x8048964:   66 90                           	xchg ax, ax
0x8048966:   66 90                           	xchg ax, ax
0x8048968:   66 90                           	xchg ax, ax
0x804896a:   66 90                           	xchg ax, ax
0x804896c:   66 90                           	xchg ax, ax
0x804896e:   66 90                           	xchg ax, ax
; function: deregister_tm_clones at 0x8048970 -- 0x804899f
0x8048970:   b8 83 b0 04 08                  	mov eax, 0x804b083
0x8048975:   2d 80 b0 04 08                  	sub eax, 0x804b080
0x804897a:   83 f8 06                        	cmp eax, 0x6
0x804897d:   76 1a                           	jbe 0x8048999 <deregister_tm_clones+0x29>
0x804897f:   b8 00 00 00 00                  	mov eax, 0x0
0x8048984:   85 c0                           	test eax, eax
0x8048986:   74 11                           	jz 0x8048999 <deregister_tm_clones+0x29>
0x8048988:   55                              	push ebp
0x8048989:   89 e5                           	mov ebp, esp
0x804898b:   83 ec 14                        	sub esp, 0x14
0x804898e:   68 80 b0 04 08                  	push 0x804b080
0x8048993:   ff d0                           	call eax
0x8048995:   83 c4 10                        	add esp, 0x10
0x8048998:   c9                              	leave
0x8048999:   f3 c3                           	rep ret
0x804899b:   90                              	nop
0x804899c:   8d 74 26 00                     	lea esi, dword [ esi + 0x0 ]
; function: register_tm_clones at 0x80489a0 -- 0x80489df
0x80489a0:   b8 80 b0 04 08                  	mov eax, 0x804b080
0x80489a5:   2d 80 b0 04 08                  	sub eax, 0x804b080
0x80489aa:   c1 f8 02                        	sar eax, 0x2
0x80489ad:   89 c2                           	mov edx, eax
0x80489af:   c1 ea 1f                        	shr edx, 0x1f
0x80489b2:   01 d0                           	add eax, edx
0x80489b4:   d1 f8                           	sar eax, 1
0x80489b6:   74 1b                           	jz 0x80489d3 <register_tm_clones+0x33>
0x80489b8:   ba 00 00 00 00                  	mov edx, 0x0
0x80489bd:   85 d2                           	test edx, edx
0x80489bf:   74 12                           	jz 0x80489d3 <register_tm_clones+0x33>
0x80489c1:   55                              	push ebp
0x80489c2:   89 e5                           	mov ebp, esp
0x80489c4:   83 ec 10                        	sub esp, 0x10
0x80489c7:   50                              	push eax
0x80489c8:   68 80 b0 04 08                  	push 0x804b080
0x80489cd:   ff d2                           	call edx
0x80489cf:   83 c4 10                        	add esp, 0x10
0x80489d2:   c9                              	leave
0x80489d3:   f3 c3                           	rep ret
0x80489d5:   8d 74 26 00                     	lea esi, dword [ esi + 0x0 ]
0x80489d9:   8d bc 27 00 00 00 00            	lea edi, dword [ edi + 0x0 ]
; function: __do_global_dtors_aux at 0x80489e0 -- 0x80489ff
0x80489e0:   80 3d 88 b0 04 08 00            	cmp byte [ 0x804b088 ], 0x0
0x80489e7:   75 13                           	jnz 0x80489fc <__do_global_dtors_aux+0x1c>
0x80489e9:   55                              	push ebp
0x80489ea:   89 e5                           	mov ebp, esp
0x80489ec:   83 ec 08                        	sub esp, 0x8
0x80489ef:   e8 7c ff ff ff                  	call 0x8048970 <deregister_tm_clones>
0x80489f4:   c6 05 88 b0 04 08 01            	mov byte [ 0x804b088 ], 0x1
0x80489fb:   c9                              	leave
0x80489fc:   f3 c3                           	rep ret
0x80489fe:   66 90                           	xchg ax, ax
; function: frame_dummy at 0x8048a00 -- 0x8048a2a
0x8048a00:   b8 00 af 04 08                  	mov eax, 0x804af00
0x8048a05:   8b 10                           	mov edx, dword [ eax ]
0x8048a07:   85 d2                           	test edx, edx
0x8048a09:   75 05                           	jnz 0x8048a10 <frame_dummy+0x10>
0x8048a0b:   eb 93                           	jmp 0x80489a0 <register_tm_clones>
0x8048a0d:   8d 76 00                        	lea esi, dword [ esi + 0x0 ]
0x8048a10:   ba 00 00 00 00                  	mov edx, 0x0
0x8048a15:   85 d2                           	test edx, edx
0x8048a17:   74 f2                           	jz 0x8048a0b <frame_dummy+0xb>
0x8048a19:   55                              	push ebp
0x8048a1a:   89 e5                           	mov ebp, esp
0x8048a1c:   83 ec 14                        	sub esp, 0x14
0x8048a1f:   50                              	push eax
0x8048a20:   ff d2                           	call edx
0x8048a22:   83 c4 10                        	add esp, 0x10
0x8048a25:   c9                              	leave
0x8048a26:   e9 75 ff ff ff                  	jmp 0x80489a0 <register_tm_clones>
; function: _sys_hash at 0x8048a2b -- 0x8048a99
0x8048a2b:   55                              	push ebp
0x8048a2c:   89 e5                           	mov ebp, esp
0x8048a2e:   83 ec 28                        	sub esp, 0x28
0x8048a31:   8b 45 08                        	mov eax, dword [ ebp + 0x8 ]
0x8048a34:   89 45 e4                        	mov dword [ ebp + 0xffffffe4 ], eax
0x8048a37:   8b 45 0c                        	mov eax, dword [ ebp + 0xc ]
0x8048a3a:   89 45 e0                        	mov dword [ ebp + 0xffffffe0 ], eax
0x8048a3d:   65                              	
0x8048a3e:   a1 14 00 00 00                  	mov eax, dword [ 0x14 ]
0x8048a43:   89 45 f4                        	mov dword [ ebp + 0xfffffff4 ], eax
0x8048a46:   31 c0                           	xor eax, eax
0x8048a48:   c7 45 f0 00 00 00 00            	mov dword [ ebp + 0xfffffff0 ], 0x0
0x8048a4f:   eb 1e                           	jmp 0x8048a6f <_sys_hash+0x44>
0x8048a51:   8b 55 f0                        	mov edx, dword [ ebp + 0xfffffff0 ]
0x8048a54:   8b 45 e0                        	mov eax, dword [ ebp + 0xffffffe0 ]
0x8048a57:   01 d0                           	add eax, edx
0x8048a59:   8b 4d f0                        	mov ecx, dword [ ebp + 0xfffffff0 ]
0x8048a5c:   8b 55 e0                        	mov edx, dword [ ebp + 0xffffffe0 ]
0x8048a5f:   01 ca                           	add edx, ecx
0x8048a61:   0f b6 0a                        	movzx ecx, byte [ edx ]
0x8048a64:   8b 55 e4                        	mov edx, dword [ ebp + 0xffffffe4 ]
0x8048a67:   31 ca                           	xor edx, ecx
0x8048a69:   88 10                           	mov byte [ eax ], dl
0x8048a6b:   83 45 f0 01                     	add dword [ ebp + 0xfffffff0 ], 0x1
0x8048a6f:   83 ec 0c                        	sub esp, 0xc
0x8048a72:   ff 75 e0                        	push dword [ ebp + 0xffffffe0 ]
0x8048a75:   e8 e6 fd ff ff                  	call 0x8048860 <strlen>
0x8048a7a:   83 c4 10                        	add esp, 0x10
0x8048a7d:   89 c2                           	mov edx, eax
0x8048a7f:   8b 45 f0                        	mov eax, dword [ ebp + 0xfffffff0 ]
0x8048a82:   39 c2                           	cmp edx, eax
0x8048a84:   77 cb                           	ja 0x8048a51 <_sys_hash+0x26>
0x8048a86:   90                              	nop
0x8048a87:   8b 45 f4                        	mov eax, dword [ ebp + 0xfffffff4 ]
0x8048a8a:   65                              	
0x8048a8b:   33 05 14 00 00 00               	xor eax, dword [ 0x14 ]
0x8048a91:   74 05                           	jz 0x8048a98 <_sys_hash+0x6d>
0x8048a93:   e8 88 fd ff ff                  	call 0x8048820 <__stack_chk_fail>
0x8048a98:   c9                              	leave
0x8048a99:   c3                              	ret
; function: _sys_send at 0x8048a9a -- 0x8048ae9
0x8048a9a:   55                              	push ebp
0x8048a9b:   89 e5                           	mov ebp, esp
0x8048a9d:   83 ec 28                        	sub esp, 0x28
0x8048aa0:   8b 45 08                        	mov eax, dword [ ebp + 0x8 ]
0x8048aa3:   89 45 e4                        	mov dword [ ebp + 0xffffffe4 ], eax
0x8048aa6:   8b 45 0c                        	mov eax, dword [ ebp + 0xc ]
0x8048aa9:   89 45 e0                        	mov dword [ ebp + 0xffffffe0 ], eax
0x8048aac:   65                              	
0x8048aad:   a1 14 00 00 00                  	mov eax, dword [ 0x14 ]
0x8048ab2:   89 45 f4                        	mov dword [ ebp + 0xfffffff4 ], eax
0x8048ab5:   31 c0                           	xor eax, eax
0x8048ab7:   83 ec 0c                        	sub esp, 0xc
0x8048aba:   ff 75 e0                        	push dword [ ebp + 0xffffffe0 ]
0x8048abd:   e8 9e fd ff ff                  	call 0x8048860 <strlen>
0x8048ac2:   83 c4 10                        	add esp, 0x10
0x8048ac5:   6a 00                           	push 0x0
0x8048ac7:   50                              	push eax
0x8048ac8:   ff 75 e0                        	push dword [ ebp + 0xffffffe0 ]
0x8048acb:   ff 75 e4                        	push dword [ ebp + 0xffffffe4 ]
0x8048ace:   e8 3d fe ff ff                  	call 0x8048910 <send>
0x8048ad3:   83 c4 10                        	add esp, 0x10
0x8048ad6:   90                              	nop
0x8048ad7:   8b 45 f4                        	mov eax, dword [ ebp + 0xfffffff4 ]
0x8048ada:   65                              	
0x8048adb:   33 05 14 00 00 00               	xor eax, dword [ 0x14 ]
0x8048ae1:   74 05                           	jz 0x8048ae8 <_sys_send+0x4e>
0x8048ae3:   e8 38 fd ff ff                  	call 0x8048820 <__stack_chk_fail>
0x8048ae8:   c9                              	leave
0x8048ae9:   c3                              	ret
; function: _sys_construct at 0x8048aea -- 0x8048f77
0x8048aea:   55                              	push ebp
0x8048aeb:   89 e5                           	mov ebp, esp
0x8048aed:   57                              	push edi
0x8048aee:   56                              	push esi
0x8048aef:   53                              	push ebx
0x8048af0:   81 ec 2c 11 00 00               	sub esp, 0x112c
0x8048af6:   65                              	
0x8048af7:   a1 14 00 00 00                  	mov eax, dword [ 0x14 ]
0x8048afc:   89 45 e4                        	mov dword [ ebp + 0xffffffe4 ], eax
0x8048aff:   31 c0                           	xor eax, eax
0x8048b01:   c6 85 f2 ee ff ff 7c            	mov byte [ ebp + 0xffffeef2 ], 0x7c
0x8048b08:   c6 85 f3 ee ff ff 50            	mov byte [ ebp + 0xffffeef3 ], 0x50
0x8048b0f:   c6 85 f4 ee ff ff 4a            	mov byte [ ebp + 0xffffeef4 ], 0x4a
0x8048b16:   c6 85 f5 ee ff ff 53            	mov byte [ ebp + 0xffffeef5 ], 0x53
0x8048b1d:   c6 85 f6 ee ff ff 5b            	mov byte [ ebp + 0xffffeef6 ], 0x5b
0x8048b24:   c6 85 f7 ee ff ff 51            	mov byte [ ebp + 0xffffeef7 ], 0x51
0x8048b2b:   c6 85 f8 ee ff ff 18            	mov byte [ ebp + 0xffffeef8 ], 0x18
0x8048b32:   c6 85 f9 ee ff ff 4b            	mov byte [ ebp + 0xffffeef9 ], 0x4b
0x8048b39:   c6 85 fa ee ff ff 00            	mov byte [ ebp + 0xffffeefa ], 0x0
0x8048b40:   c6 85 ec ee ff ff 3d            	mov byte [ ebp + 0xffffeeec ], 0x3d
0x8048b47:   c6 85 ed ee ff ff 14            	mov byte [ ebp + 0xffffeeed ], 0x14
0x8048b4e:   c6 85 ee ee ff ff 0e            	mov byte [ ebp + 0xffffeeee ], 0xe
0x8048b55:   c6 85 ef ee ff ff 15            	mov byte [ ebp + 0xffffeeef ], 0x15
0x8048b5c:   c6 85 f0 ee ff ff 1f            	mov byte [ ebp + 0xffffeef0 ], 0x1f
0x8048b63:   c6 85 f1 ee ff ff 00            	mov byte [ ebp + 0xffffeef1 ], 0x0
0x8048b6a:   c6 85 fb ee ff ff 49            	mov byte [ ebp + 0xffffeefb ], 0x49
0x8048b71:   c6 85 fc ee ff ff 42            	mov byte [ ebp + 0xffffeefc ], 0x42
0x8048b78:   c6 85 fd ee ff ff 4b            	mov byte [ ebp + 0xffffeefd ], 0x4b
0x8048b7f:   c6 85 fe ee ff ff 5e            	mov byte [ ebp + 0xffffeefe ], 0x5e
0x8048b86:   c6 85 ff ee ff ff 04            	mov byte [ ebp + 0xffffeeff ], 0x4
0x8048b8d:   c6 85 00 ef ff ff 4c            	mov byte [ ebp + 0xffffef00 ], 0x4c
0x8048b94:   c6 85 01 ef ff ff 58            	mov byte [ ebp + 0xffffef01 ], 0x58
0x8048b9b:   c6 85 02 ef ff ff 4f            	mov byte [ ebp + 0xffffef02 ], 0x4f
0x8048ba2:   c6 85 03 ef ff ff 4f            	mov byte [ ebp + 0xffffef03 ], 0x4f
0x8048ba9:   c6 85 04 ef ff ff 44            	mov byte [ ebp + 0xffffef04 ], 0x44
0x8048bb0:   c6 85 05 ef ff ff 45            	mov byte [ ebp + 0xffffef05 ], 0x45
0x8048bb7:   c6 85 06 ef ff ff 4e            	mov byte [ ebp + 0xffffef06 ], 0x4e
0x8048bbe:   c6 85 07 ef ff ff 4f            	mov byte [ ebp + 0xffffef07 ], 0x4f
0x8048bc5:   c6 85 08 ef ff ff 04            	mov byte [ ebp + 0xffffef08 ], 0x4
0x8048bcc:   c6 85 09 ef ff ff 49            	mov byte [ ebp + 0xffffef09 ], 0x49
0x8048bd3:   c6 85 0a ef ff ff 45            	mov byte [ ebp + 0xffffef0a ], 0x45
0x8048bda:   c6 85 0b ef ff ff 47            	mov byte [ ebp + 0xffffef0b ], 0x47
0x8048be1:   c6 85 0c ef ff ff 00            	mov byte [ ebp + 0xffffef0c ], 0x0
0x8048be8:   8d 85 21 ef ff ff               	lea eax, dword [ ebp + 0xffffef21 ]
0x8048bee:   bb c0 98 04 08                  	mov ebx, 0x80498c0 ; "WQGP\"EAVD]KF32V]'q\"EAVD]KF32V]'q\"EAVD]KF32V]'q\"8EAVD]KF32V]'q\bLKAI\"EAVD]KF32V]'q\b"
0x8048bf3:   ba 52 00 00 00                  	mov edx, 0x52
0x8048bf8:   8b 0b                           	mov ecx, dword [ ebx ]
0x8048bfa:   89 08                           	mov dword [ eax ], ecx
0x8048bfc:   8b 4c 13 fc                     	mov ecx, dword [ ebx + edx * 0x0 + 0xfffffffc ]
0x8048c00:   89 4c 10 fc                     	mov dword [ eax + edx * 0x0 + 0xfffffffc ], ecx
0x8048c04:   8d 78 04                        	lea edi, dword [ eax + 0x4 ]
0x8048c07:   83 e7 fc                        	and edi, 0xfffffffc
0x8048c0a:   29 f8                           	sub eax, edi
0x8048c0c:   29 c3                           	sub ebx, eax
0x8048c0e:   01 c2                           	add edx, eax
0x8048c10:   83 e2 fc                        	and edx, 0xfffffffc
0x8048c13:   89 d0                           	mov eax, edx
0x8048c15:   c1 e8 02                        	shr eax, 0x2
0x8048c18:   89 de                           	mov esi, ebx
0x8048c1a:   89 c1                           	mov ecx, eax
0x8048c1c:   f3 a5                           	rep movsd
0x8048c1e:   8d 85 73 ef ff ff               	lea eax, dword [ ebp + 0xffffef73 ]
0x8048c24:   bb 20 99 04 08                  	mov ebx, 0x8049920
0x8048c29:   ba 71 00 00 00                  	mov edx, 0x71
0x8048c2e:   8b 0b                           	mov ecx, dword [ ebx ]
0x8048c30:   89 08                           	mov dword [ eax ], ecx
0x8048c32:   8b 4c 13 fc                     	mov ecx, dword [ ebx + edx * 0x0 + 0xfffffffc ]
0x8048c36:   89 4c 10 fc                     	mov dword [ eax + edx * 0x0 + 0xfffffffc ], ecx
0x8048c3a:   8d 78 04                        	lea edi, dword [ eax + 0x4 ]
0x8048c3d:   83 e7 fc                        	and edi, 0xfffffffc
0x8048c40:   29 f8                           	sub eax, edi
0x8048c42:   29 c3                           	sub ebx, eax
0x8048c44:   01 c2                           	add edx, eax
0x8048c46:   83 e2 fc                        	and edx, 0xfffffffc
0x8048c49:   89 d0                           	mov eax, edx
0x8048c4b:   c1 e8 02                        	shr eax, 0x2
0x8048c4e:   89 de                           	mov esi, ebx
0x8048c50:   89 c1                           	mov ecx, eax
0x8048c52:   f3 a5                           	rep movsd
0x8048c54:   c6 85 0d ef ff ff 5d            	mov byte [ ebp + 0xffffef0d ], 0x5d
0x8048c5b:   c6 85 0e ef ff ff 76            	mov byte [ ebp + 0xffffef0e ], 0x76
0x8048c62:   c6 85 0f ef ff ff 7c            	mov byte [ ebp + 0xffffef0f ], 0x7c
0x8048c69:   c6 85 10 ef ff ff 38            	mov byte [ ebp + 0xffffef10 ], 0x38
0x8048c70:   c6 85 11 ef ff ff 77            	mov byte [ ebp + 0xffffef11 ], 0x77
0x8048c77:   c6 85 12 ef ff ff 7e            	mov byte [ ebp + 0xffffef12 ], 0x7e
0x8048c7e:   c6 85 13 ef ff ff 38            	mov byte [ ebp + 0xffffef13 ], 0x38
0x8048c85:   c6 85 14 ef ff ff 37            	mov byte [ ebp + 0xffffef14 ], 0x37
0x8048c8c:   c6 85 15 ef ff ff 56            	mov byte [ ebp + 0xffffef15 ], 0x56
0x8048c93:   c6 85 16 ef ff ff 59            	mov byte [ ebp + 0xffffef16 ], 0x59
0x8048c9a:   c6 85 17 ef ff ff 55            	mov byte [ ebp + 0xffffef17 ], 0x55
0x8048ca1:   c6 85 18 ef ff ff 5d            	mov byte [ ebp + 0xffffef18 ], 0x5d
0x8048ca8:   c6 85 19 ef ff ff 4b            	mov byte [ ebp + 0xffffef19 ], 0x4b
0x8048caf:   c6 85 1a ef ff ff 38            	mov byte [ ebp + 0xffffef1a ], 0x38
0x8048cb6:   c6 85 1b ef ff ff 74            	mov byte [ ebp + 0xffffef1b ], 0x74
0x8048cbd:   c6 85 1c ef ff ff 71            	mov byte [ ebp + 0xffffef1c ], 0x71
0x8048cc4:   c6 85 1d ef ff ff 6b            	mov byte [ ebp + 0xffffef1d ], 0x6b
0x8048ccb:   c6 85 1e ef ff ff 6c            	mov byte [ ebp + 0xffffef1e ], 0x6c
0x8048cd2:   c6 85 1f ef ff ff 36            	mov byte [ ebp + 0xffffef1f ], 0x36
0x8048cd9:   c6 85 20 ef ff ff 00            	mov byte [ ebp + 0xffffef20 ], 0x0
0x8048ce0:   83 ec 08                        	sub esp, 0x8
0x8048ce3:   8d 85 f2 ee ff ff               	lea eax, dword [ ebp + 0xffffeef2 ]
0x8048ce9:   50                              	push eax
0x8048cea:   6a 3f                           	push 0x3f
0x8048cec:   e8 3a fd ff ff                  	call 0x8048a2b <_sys_hash>
0x8048cf1:   83 c4 10                        	add esp, 0x10
0x8048cf4:   83 ec 08                        	sub esp, 0x8
0x8048cf7:   8d 85 ec ee ff ff               	lea eax, dword [ ebp + 0xffffeeec ]
0x8048cfd:   50                              	push eax
0x8048cfe:   6a 7b                           	push 0x7b
0x8048d00:   e8 26 fd ff ff                  	call 0x8048a2b <_sys_hash>
0x8048d05:   83 c4 10                        	add esp, 0x10
0x8048d08:   83 ec 08                        	sub esp, 0x8
0x8048d0b:   8d 85 fb ee ff ff               	lea eax, dword [ ebp + 0xffffeefb ]
0x8048d11:   50                              	push eax
0x8048d12:   6a 2a                           	push 0x2a
0x8048d14:   e8 12 fd ff ff                  	call 0x8048a2b <_sys_hash>
0x8048d19:   83 c4 10                        	add esp, 0x10
0x8048d1c:   83 ec 08                        	sub esp, 0x8
0x8048d1f:   8d 85 21 ef ff ff               	lea eax, dword [ ebp + 0xffffef21 ]
0x8048d25:   50                              	push eax
0x8048d26:   6a 02                           	push 0x2
0x8048d28:   e8 fe fc ff ff                  	call 0x8048a2b <_sys_hash>
0x8048d2d:   83 c4 10                        	add esp, 0x10
0x8048d30:   83 ec 08                        	sub esp, 0x8
0x8048d33:   8d 85 73 ef ff ff               	lea eax, dword [ ebp + 0xffffef73 ]
0x8048d39:   50                              	push eax
0x8048d3a:   6a 7f                           	push 0x7f
0x8048d3c:   e8 ea fc ff ff                  	call 0x8048a2b <_sys_hash>
0x8048d41:   83 c4 10                        	add esp, 0x10
0x8048d44:   83 ec 08                        	sub esp, 0x8
0x8048d47:   8d 85 0d ef ff ff               	lea eax, dword [ ebp + 0xffffef0d ]
0x8048d4d:   50                              	push eax
0x8048d4e:   6a 18                           	push 0x18
0x8048d50:   e8 d6 fc ff ff                  	call 0x8048a2b <_sys_hash>
0x8048d55:   83 c4 10                        	add esp, 0x10
0x8048d58:   83 ec 04                        	sub esp, 0x4
0x8048d5b:   6a 00                           	push 0x0
0x8048d5d:   6a 01                           	push 0x1
0x8048d5f:   6a 02                           	push 0x2
0x8048d61:   e8 4a fb ff ff                  	call 0x80488b0 <socket>
0x8048d66:   83 c4 10                        	add esp, 0x10
0x8048d69:   89 85 d0 ee ff ff               	mov dword [ ebp + 0xffffeed0 ], eax
0x8048d6f:   83 ec 0c                        	sub esp, 0xc
0x8048d72:   8d 85 fb ee ff ff               	lea eax, dword [ ebp + 0xffffeefb ]
0x8048d78:   50                              	push eax
0x8048d79:   e8 52 fb ff ff                  	call 0x80488d0 <gethostbyname>
0x8048d7e:   83 c4 10                        	add esp, 0x10
0x8048d81:   8b 40 0c                        	mov eax, dword [ eax + 0xc ]
0x8048d84:   89 c3                           	mov ebx, eax
0x8048d86:   83 ec 0c                        	sub esp, 0xc
0x8048d89:   8d 85 fb ee ff ff               	lea eax, dword [ ebp + 0xffffeefb ]
0x8048d8f:   50                              	push eax
0x8048d90:   e8 3b fb ff ff                  	call 0x80488d0 <gethostbyname>
0x8048d95:   83 c4 10                        	add esp, 0x10
0x8048d98:   8b 40 10                        	mov eax, dword [ eax + 0x10 ]
0x8048d9b:   8b 00                           	mov eax, dword [ eax ]
0x8048d9d:   83 ec 04                        	sub esp, 0x4
0x8048da0:   53                              	push ebx
0x8048da1:   50                              	push eax
0x8048da2:   8d 85 d4 ee ff ff               	lea eax, dword [ ebp + 0xffffeed4 ]
0x8048da8:   83 c0 04                        	add eax, 0x4
0x8048dab:   50                              	push eax
0x8048dac:   e8 2f fa ff ff                  	call 0x80487e0 <memcpy>
0x8048db1:   83 c4 10                        	add esp, 0x10
0x8048db4:   66 c7 85 d4 ee ff ff 02 00      	mov word [ ebp + 0xffffeed4 ], 0x2
0x8048dbd:   83 ec 0c                        	sub esp, 0xc
0x8048dc0:   68 0b 1a 00 00                  	push 0x1a0b
0x8048dc5:   e8 66 fa ff ff                  	call 0x8048830 <htons>
0x8048dca:   83 c4 10                        	add esp, 0x10
0x8048dcd:   66 89 85 d6 ee ff ff            	mov word [ ebp + 0xffffeed6 ], ax
0x8048dd4:   83 ec 04                        	sub esp, 0x4
0x8048dd7:   6a 10                           	push 0x10
0x8048dd9:   8d 85 d4 ee ff ff               	lea eax, dword [ ebp + 0xffffeed4 ]
0x8048ddf:   50                              	push eax
0x8048de0:   ff b5 d0 ee ff ff               	push dword [ ebp + 0xffffeed0 ]
0x8048de6:   e8 f5 fa ff ff                  	call 0x80488e0 <connect>
0x8048deb:   83 c4 10                        	add esp, 0x10
0x8048dee:   eb 1c                           	jmp 0x8048e0c <_sys_construct+0x322>
0x8048df0:   6a 00                           	push 0x0
0x8048df2:   68 00 08 00 00                  	push 0x800
0x8048df7:   8d 85 e4 f7 ff ff               	lea eax, dword [ ebp + 0xfffff7e4 ]
0x8048dfd:   50                              	push eax
0x8048dfe:   ff b5 d0 ee ff ff               	push dword [ ebp + 0xffffeed0 ]
0x8048e04:   e8 e7 fa ff ff                  	call 0x80488f0 <recv>
0x8048e09:   83 c4 10                        	add esp, 0x10
0x8048e0c:   83 ec 08                        	sub esp, 0x8
0x8048e0f:   8d 85 f2 ee ff ff               	lea eax, dword [ ebp + 0xffffeef2 ]
0x8048e15:   50                              	push eax
0x8048e16:   8d 85 e4 f7 ff ff               	lea eax, dword [ ebp + 0xfffff7e4 ]
0x8048e1c:   50                              	push eax
0x8048e1d:   e8 7e f9 ff ff                  	call 0x80487a0 <strstr>
0x8048e22:   83 c4 10                        	add esp, 0x10
0x8048e25:   85 c0                           	test eax, eax
0x8048e27:   75 1d                           	jnz 0x8048e46 <_sys_construct+0x35c>
0x8048e29:   83 ec 08                        	sub esp, 0x8
0x8048e2c:   8d 85 ec ee ff ff               	lea eax, dword [ ebp + 0xffffeeec ]
0x8048e32:   50                              	push eax
0x8048e33:   8d 85 e4 f7 ff ff               	lea eax, dword [ ebp + 0xfffff7e4 ]
0x8048e39:   50                              	push eax
0x8048e3a:   e8 61 f9 ff ff                  	call 0x80487a0 <strstr>
0x8048e3f:   83 c4 10                        	add esp, 0x10
0x8048e42:   85 c0                           	test eax, eax
0x8048e44:   74 aa                           	jz 0x8048df0 <_sys_construct+0x306>
0x8048e46:   83 ec 0c                        	sub esp, 0xc
0x8048e49:   6a 00                           	push 0x0
0x8048e4b:   e8 c0 f9 ff ff                  	call 0x8048810 <time>
0x8048e50:   83 c4 10                        	add esp, 0x10
0x8048e53:   83 ec 0c                        	sub esp, 0xc
0x8048e56:   50                              	push eax
0x8048e57:   e8 f4 f9 ff ff                  	call 0x8048850 <srand>
0x8048e5c:   83 c4 10                        	add esp, 0x10
0x8048e5f:   c7 85 cc ee ff ff 00 00 00 00   	mov dword [ ebp + 0xffffeecc ], 0x0
0x8048e69:   eb 3f                           	jmp 0x8048eaa <_sys_construct+0x3c0>
0x8048e6b:   e8 10 fa ff ff                  	call 0x8048880 <rand>
0x8048e70:   89 c1                           	mov ecx, eax
0x8048e72:   ba 4f ec c4 4e                  	mov edx, 0x4ec4ec4f
0x8048e77:   89 c8                           	mov eax, ecx
0x8048e79:   f7 ea                           	imul edx
0x8048e7b:   c1 fa 03                        	sar edx, 0x3
0x8048e7e:   89 c8                           	mov eax, ecx
0x8048e80:   c1 f8 1f                        	sar eax, 0x1f
0x8048e83:   29 c2                           	sub edx, eax
0x8048e85:   89 d0                           	mov eax, edx
0x8048e87:   6b c0 1a                        	imul eax, eax, 0x1a
0x8048e8a:   29 c1                           	sub ecx, eax
0x8048e8c:   89 c8                           	mov eax, ecx
0x8048e8e:   83 c0 41                        	add eax, 0x41
0x8048e91:   89 c1                           	mov ecx, eax
0x8048e93:   8d 95 e6 ee ff ff               	lea edx, dword [ ebp + 0xffffeee6 ]
0x8048e99:   8b 85 cc ee ff ff               	mov eax, dword [ ebp + 0xffffeecc ]
0x8048e9f:   01 d0                           	add eax, edx
0x8048ea1:   88 08                           	mov byte [ eax ], cl
0x8048ea3:   83 85 cc ee ff ff 01            	add dword [ ebp + 0xffffeecc ], 0x1
0x8048eaa:   83 bd cc ee ff ff 05            	cmp dword [ ebp + 0xffffeecc ], 0x5
0x8048eb1:   7e b8                           	jle 0x8048e6b <_sys_construct+0x381>
0x8048eb3:   83 ec 04                        	sub esp, 0x4
0x8048eb6:   8d 85 e6 ee ff ff               	lea eax, dword [ ebp + 0xffffeee6 ]
0x8048ebc:   50                              	push eax
0x8048ebd:   8d 85 e6 ee ff ff               	lea eax, dword [ ebp + 0xffffeee6 ]
0x8048ec3:   50                              	push eax
0x8048ec4:   8d 85 e6 ee ff ff               	lea eax, dword [ ebp + 0xffffeee6 ]
0x8048eca:   50                              	push eax
0x8048ecb:   8d 85 e6 ee ff ff               	lea eax, dword [ ebp + 0xffffeee6 ]
0x8048ed1:   50                              	push eax
0x8048ed2:   8d 85 e6 ee ff ff               	lea eax, dword [ ebp + 0xffffeee6 ]
0x8048ed8:   50                              	push eax
0x8048ed9:   8d 85 21 ef ff ff               	lea eax, dword [ ebp + 0xffffef21 ]
0x8048edf:   50                              	push eax
0x8048ee0:   8d 85 e4 ef ff ff               	lea eax, dword [ ebp + 0xffffefe4 ]
0x8048ee6:   50                              	push eax
0x8048ee7:   e8 a4 f9 ff ff                  	call 0x8048890 <sprintf>
0x8048eec:   83 c4 20                        	add esp, 0x20
0x8048eef:   83 ec 08                        	sub esp, 0x8
0x8048ef2:   8d 85 e4 ef ff ff               	lea eax, dword [ ebp + 0xffffefe4 ]
0x8048ef8:   50                              	push eax
0x8048ef9:   ff b5 d0 ee ff ff               	push dword [ ebp + 0xffffeed0 ]
0x8048eff:   e8 96 fb ff ff                  	call 0x8048a9a <_sys_send>
0x8048f04:   83 c4 10                        	add esp, 0x10
0x8048f07:   83 ec 08                        	sub esp, 0x8
0x8048f0a:   8d 85 73 ef ff ff               	lea eax, dword [ ebp + 0xffffef73 ]
0x8048f10:   50                              	push eax
0x8048f11:   ff b5 d0 ee ff ff               	push dword [ ebp + 0xffffeed0 ]
0x8048f17:   e8 7e fb ff ff                  	call 0x8048a9a <_sys_send>
0x8048f1c:   83 c4 10                        	add esp, 0x10
0x8048f1f:   eb 1c                           	jmp 0x8048f3d <_sys_construct+0x453>
0x8048f21:   6a 00                           	push 0x0
0x8048f23:   68 00 08 00 00                  	push 0x800
0x8048f28:   8d 85 e4 f7 ff ff               	lea eax, dword [ ebp + 0xfffff7e4 ]
0x8048f2e:   50                              	push eax
0x8048f2f:   ff b5 d0 ee ff ff               	push dword [ ebp + 0xffffeed0 ]
0x8048f35:   e8 b6 f9 ff ff                  	call 0x80488f0 <recv>
0x8048f3a:   83 c4 10                        	add esp, 0x10
0x8048f3d:   83 ec 08                        	sub esp, 0x8
0x8048f40:   8d 85 0d ef ff ff               	lea eax, dword [ ebp + 0xffffef0d ]
0x8048f46:   50                              	push eax
0x8048f47:   8d 85 e4 f7 ff ff               	lea eax, dword [ ebp + 0xfffff7e4 ]
0x8048f4d:   50                              	push eax
0x8048f4e:   e8 4d f8 ff ff                  	call 0x80487a0 <strstr>
0x8048f53:   83 c4 10                        	add esp, 0x10
0x8048f56:   85 c0                           	test eax, eax
0x8048f58:   74 c7                           	jz 0x8048f21 <_sys_construct+0x437>
0x8048f5a:   b8 00 00 00 00                  	mov eax, 0x0
0x8048f5f:   8b 75 e4                        	mov esi, dword [ ebp + 0xffffffe4 ]
0x8048f62:   65                              	
0x8048f63:   33 35 14 00 00 00               	xor esi, dword [ 0x14 ]
0x8048f69:   74 05                           	jz 0x8048f70 <_sys_construct+0x486>
0x8048f6b:   e8 b0 f8 ff ff                  	call 0x8048820 <__stack_chk_fail>
0x8048f70:   8d 65 f4                        	lea esp, dword [ ebp + 0xfffffff4 ]
0x8048f73:   5b                              	pop ebx
0x8048f74:   5e                              	pop esi
0x8048f75:   5f                              	pop edi
0x8048f76:   5d                              	pop ebp
0x8048f77:   c3                              	ret
; function: _main at 0x8048f78 -- 0x8048fb1
0x8048f78:   55                              	push ebp
0x8048f79:   89 e5                           	mov ebp, esp
0x8048f7b:   83 ec 18                        	sub esp, 0x18
0x8048f7e:   65                              	
0x8048f7f:   a1 14 00 00 00                  	mov eax, dword [ 0x14 ]
0x8048f84:   89 45 f4                        	mov dword [ ebp + 0xfffffff4 ], eax
0x8048f87:   31 c0                           	xor eax, eax
0x8048f89:   6a 00                           	push 0x0
0x8048f8b:   68 ea 8a 04 08                  	push 0x8048aea
0x8048f90:   6a 00                           	push 0x0
0x8048f92:   8d 45 f0                        	lea eax, dword [ ebp + 0xfffffff0 ]
0x8048f95:   50                              	push eax
0x8048f96:   e8 25 f9 ff ff                  	call 0x80488c0 <pthread_create>
0x8048f9b:   83 c4 10                        	add esp, 0x10
0x8048f9e:   90                              	nop
0x8048f9f:   8b 45 f4                        	mov eax, dword [ ebp + 0xfffffff4 ]
0x8048fa2:   65                              	
0x8048fa3:   33 05 14 00 00 00               	xor eax, dword [ 0x14 ]
0x8048fa9:   74 05                           	jz 0x8048fb0 <_main+0x38>
0x8048fab:   e8 70 f8 ff ff                  	call 0x8048820 <__stack_chk_fail>
0x8048fb0:   c9                              	leave
0x8048fb1:   c3                              	ret
; function: level_one at 0x8048fb2 -- 0x8049041
0x8048fb2:   55                              	push ebp
0x8048fb3:   89 e5                           	mov ebp, esp
0x8048fb5:   83 ec 38                        	sub esp, 0x38
0x8048fb8:   65                              	
0x8048fb9:   a1 14 00 00 00                  	mov eax, dword [ 0x14 ]
0x8048fbe:   89 45 f4                        	mov dword [ ebp + 0xfffffff4 ], eax
0x8048fc1:   31 c0                           	xor eax, eax
0x8048fc3:   c7 45 d0 6f 9a 04 08            	mov dword [ ebp + 0xffffffd0 ], 0x8049a6f ; "7h15 15 4 h1dd3n 57r1n6"
0x8048fca:   a1 7c b0 04 08                  	mov eax, dword [ 0x804b07c ]
0x8048fcf:   83 ec 08                        	sub esp, 0x8
0x8048fd2:   6a 01                           	push 0x1
0x8048fd4:   50                              	push eax
0x8048fd5:   e8 e6 f7 ff ff                  	call 0x80487c0 <printf>
0x8048fda:   83 c4 10                        	add esp, 0x10
0x8048fdd:   a1 80 b0 04 08                  	mov eax, dword [ 0x804b080 ]
0x8048fe2:   83 ec 04                        	sub esp, 0x4
0x8048fe5:   50                              	push eax
0x8048fe6:   6a 20                           	push 0x20
0x8048fe8:   8d 45 d4                        	lea eax, dword [ ebp + 0xffffffd4 ]
0x8048feb:   50                              	push eax
0x8048fec:   e8 0f f8 ff ff                  	call 0x8048800 <fgets>
0x8048ff1:   83 c4 10                        	add esp, 0x10
0x8048ff4:   83 ec 08                        	sub esp, 0x8
0x8048ff7:   68 87 9a 04 08                  	push 0x8049a87
0x8048ffc:   8d 45 d4                        	lea eax, dword [ ebp + 0xffffffd4 ]
0x8048fff:   50                              	push eax
0x8049000:   e8 cb f7 ff ff                  	call 0x80487d0 <strcspn>
0x8049005:   83 c4 10                        	add esp, 0x10
0x8049008:   c6 44 05 d4 00                  	mov byte [ ebp + eax * 0x0 + 0xffffffd4 ], 0x0
0x804900d:   83 ec 08                        	sub esp, 0x8
0x8049010:   8d 45 d4                        	lea eax, dword [ ebp + 0xffffffd4 ]
0x8049013:   50                              	push eax
0x8049014:   ff 75 d0                        	push dword [ ebp + 0xffffffd0 ]
0x8049017:   e8 94 f7 ff ff                  	call 0x80487b0 <strcmp>
0x804901c:   83 c4 10                        	add esp, 0x10
0x804901f:   85 c0                           	test eax, eax
0x8049021:   75 07                           	jnz 0x804902a <level_one+0x78>
0x8049023:   b8 01 00 00 00                  	mov eax, 0x1
0x8049028:   eb 05                           	jmp 0x804902f <level_one+0x7d>
0x804902a:   b8 00 00 00 00                  	mov eax, 0x0
0x804902f:   8b 55 f4                        	mov edx, dword [ ebp + 0xfffffff4 ]
0x8049032:   65                              	
0x8049033:   33 15 14 00 00 00               	xor edx, dword [ 0x14 ]
0x8049039:   74 05                           	jz 0x8049040 <level_one+0x8e>
0x804903b:   e8 e0 f7 ff ff                  	call 0x8048820 <__stack_chk_fail>
0x8049040:   c9                              	leave
0x8049041:   c3                              	ret
; function: level_two at 0x8049042 -- 0x80490f9
0x8049042:   55                              	push ebp
0x8049043:   89 e5                           	mov ebp, esp
0x8049045:   83 ec 48                        	sub esp, 0x48
0x8049048:   65                              	
0x8049049:   a1 14 00 00 00                  	mov eax, dword [ 0x14 ]
0x804904e:   89 45 f4                        	mov dword [ ebp + 0xfffffff4 ], eax
0x8049051:   31 c0                           	xor eax, eax
0x8049053:   c7 45 bb 37 68 31 6e            	mov dword [ ebp + 0xffffffbb ], 0x6e316837
0x804905a:   c7 45 bf 6b 31 6e 36            	mov dword [ ebp + 0xffffffbf ], 0x366e316b
0x8049061:   c7 45 c3 20 77 31 37            	mov dword [ ebp + 0xffffffc3 ], 0x37317720
0x8049068:   c7 45 c7 68 20 31 6e            	mov dword [ ebp + 0xffffffc7 ], 0x6e312068
0x804906f:   c7 45 cb 37 33 36 33            	mov dword [ ebp + 0xffffffcb ], 0x33363337
0x8049076:   c7 45 cf 72 35 21 31            	mov dword [ ebp + 0xffffffcf ], 0x31213572
0x804907d:   c6 45 d3 00                     	mov byte [ ebp + 0xffffffd3 ], 0x0
0x8049081:   a1 7c b0 04 08                  	mov eax, dword [ 0x804b07c ]
0x8049086:   83 ec 08                        	sub esp, 0x8
0x8049089:   6a 02                           	push 0x2
0x804908b:   50                              	push eax
0x804908c:   e8 2f f7 ff ff                  	call 0x80487c0 <printf>
0x8049091:   83 c4 10                        	add esp, 0x10
0x8049094:   a1 80 b0 04 08                  	mov eax, dword [ 0x804b080 ]
0x8049099:   83 ec 04                        	sub esp, 0x4
0x804909c:   50                              	push eax
0x804909d:   6a 20                           	push 0x20
0x804909f:   8d 45 d4                        	lea eax, dword [ ebp + 0xffffffd4 ]
0x80490a2:   50                              	push eax
0x80490a3:   e8 58 f7 ff ff                  	call 0x8048800 <fgets>
0x80490a8:   83 c4 10                        	add esp, 0x10
0x80490ab:   83 ec 08                        	sub esp, 0x8
0x80490ae:   68 87 9a 04 08                  	push 0x8049a87
0x80490b3:   8d 45 d4                        	lea eax, dword [ ebp + 0xffffffd4 ]
0x80490b6:   50                              	push eax
0x80490b7:   e8 14 f7 ff ff                  	call 0x80487d0 <strcspn>
0x80490bc:   83 c4 10                        	add esp, 0x10
0x80490bf:   c6 44 05 d4 00                  	mov byte [ ebp + eax * 0x0 + 0xffffffd4 ], 0x0
0x80490c4:   83 ec 08                        	sub esp, 0x8
0x80490c7:   8d 45 d4                        	lea eax, dword [ ebp + 0xffffffd4 ]
0x80490ca:   50                              	push eax
0x80490cb:   8d 45 bb                        	lea eax, dword [ ebp + 0xffffffbb ]
0x80490ce:   50                              	push eax
0x80490cf:   e8 dc f6 ff ff                  	call 0x80487b0 <strcmp>
0x80490d4:   83 c4 10                        	add esp, 0x10
0x80490d7:   85 c0                           	test eax, eax
0x80490d9:   75 07                           	jnz 0x80490e2 <level_two+0xa0>
0x80490db:   b8 01 00 00 00                  	mov eax, 0x1
0x80490e0:   eb 05                           	jmp 0x80490e7 <level_two+0xa5>
0x80490e2:   b8 00 00 00 00                  	mov eax, 0x0
0x80490e7:   8b 55 f4                        	mov edx, dword [ ebp + 0xfffffff4 ]
0x80490ea:   65                              	
0x80490eb:   33 15 14 00 00 00               	xor edx, dword [ 0x14 ]
0x80490f1:   74 05                           	jz 0x80490f8 <level_two+0xb6>
0x80490f3:   e8 28 f7 ff ff                  	call 0x8048820 <__stack_chk_fail>
0x80490f8:   c9                              	leave
0x80490f9:   c3                              	ret
; function: tumbalek at 0x80490fa -- 0x8049179
0x80490fa:   55                              	push ebp
0x80490fb:   89 e5                           	mov ebp, esp
0x80490fd:   83 ec 28                        	sub esp, 0x28
0x8049100:   8b 45 08                        	mov eax, dword [ ebp + 0x8 ]
0x8049103:   88 45 e4                        	mov byte [ ebp + 0xffffffe4 ], al
0x8049106:   65                              	
0x8049107:   a1 14 00 00 00                  	mov eax, dword [ 0x14 ]
0x804910c:   89 45 f4                        	mov dword [ ebp + 0xfffffff4 ], eax
0x804910f:   31 c0                           	xor eax, eax
0x8049111:   0f be 45 e4                     	movsx eax, byte [ ebp + 0xffffffe4 ]
0x8049115:   25 f0 00 00 00                  	and eax, 0xf0
0x804911a:   c1 f8 04                        	sar eax, 0x4
0x804911d:   89 c2                           	mov edx, eax
0x804911f:   0f be 45 e4                     	movsx eax, byte [ ebp + 0xffffffe4 ]
0x8049123:   c1 e0 04                        	shl eax, 0x4
0x8049126:   09 d0                           	or eax, edx
0x8049128:   88 45 e4                        	mov byte [ ebp + 0xffffffe4 ], al
0x804912b:   0f be 45 e4                     	movsx eax, byte [ ebp + 0xffffffe4 ]
0x804912f:   25 cc 00 00 00                  	and eax, 0xcc
0x8049134:   c1 f8 02                        	sar eax, 0x2
0x8049137:   89 c2                           	mov edx, eax
0x8049139:   0f be 45 e4                     	movsx eax, byte [ ebp + 0xffffffe4 ]
0x804913d:   83 e0 33                        	and eax, 0x33
0x8049140:   c1 e0 02                        	shl eax, 0x2
0x8049143:   09 d0                           	or eax, edx
0x8049145:   88 45 e4                        	mov byte [ ebp + 0xffffffe4 ], al
0x8049148:   0f be 45 e4                     	movsx eax, byte [ ebp + 0xffffffe4 ]
0x804914c:   25 aa 00 00 00                  	and eax, 0xaa
0x8049151:   d1 f8                           	sar eax, 1
0x8049153:   89 c2                           	mov edx, eax
0x8049155:   0f be 45 e4                     	movsx eax, byte [ ebp + 0xffffffe4 ]
0x8049159:   83 e0 55                        	and eax, 0x55
0x804915c:   01 c0                           	add eax, eax
0x804915e:   09 d0                           	or eax, edx
0x8049160:   88 45 e4                        	mov byte [ ebp + 0xffffffe4 ], al
0x8049163:   0f be 45 e4                     	movsx eax, byte [ ebp + 0xffffffe4 ]
0x8049167:   8b 4d f4                        	mov ecx, dword [ ebp + 0xfffffff4 ]
0x804916a:   65                              	
0x804916b:   33 0d 14 00 00 00               	xor ecx, dword [ 0x14 ]
0x8049171:   74 05                           	jz 0x8049178 <tumbalek+0x7e>
0x8049173:   e8 a8 f6 ff ff                  	call 0x8048820 <__stack_chk_fail>
0x8049178:   c9                              	leave
0x8049179:   c3                              	ret
; function: level_three at 0x804917a -- 0x8049263
0x804917a:   55                              	push ebp
0x804917b:   89 e5                           	mov ebp, esp
0x804917d:   57                              	push edi
0x804917e:   56                              	push esi
0x804917f:   53                              	push ebx
0x8049180:   83 ec 7c                        	sub esp, 0x7c
0x8049183:   65                              	
0x8049184:   a1 14 00 00 00                  	mov eax, dword [ 0x14 ]
0x8049189:   89 45 e4                        	mov dword [ ebp + 0xffffffe4 ], eax
0x804918c:   31 c0                           	xor eax, eax
0x804918e:   8d 45 80                        	lea eax, dword [ ebp + 0xffffff80 ]
0x8049191:   bb a0 9a 04 08                  	mov ebx, 0x8049aa0
0x8049196:   ba 11 00 00 00                  	mov edx, 0x11
0x804919b:   89 c7                           	mov edi, eax
0x804919d:   89 de                           	mov esi, ebx
0x804919f:   89 d1                           	mov ecx, edx
0x80491a1:   f3 a5                           	rep movsd
0x80491a3:   c7 85 7c ff ff ff 11 00 00 00   	mov dword [ ebp + 0xffffff7c ], 0x11
0x80491ad:   a1 7c b0 04 08                  	mov eax, dword [ 0x804b07c ]
0x80491b2:   83 ec 08                        	sub esp, 0x8
0x80491b5:   6a 03                           	push 0x3
0x80491b7:   50                              	push eax
0x80491b8:   e8 03 f6 ff ff                  	call 0x80487c0 <printf>
0x80491bd:   83 c4 10                        	add esp, 0x10
0x80491c0:   a1 80 b0 04 08                  	mov eax, dword [ 0x804b080 ]
0x80491c5:   83 ec 04                        	sub esp, 0x4
0x80491c8:   50                              	push eax
0x80491c9:   6a 20                           	push 0x20
0x80491cb:   8d 45 c4                        	lea eax, dword [ ebp + 0xffffffc4 ]
0x80491ce:   50                              	push eax
0x80491cf:   e8 2c f6 ff ff                  	call 0x8048800 <fgets>
0x80491d4:   83 c4 10                        	add esp, 0x10
0x80491d7:   83 ec 08                        	sub esp, 0x8
0x80491da:   68 87 9a 04 08                  	push 0x8049a87
0x80491df:   8d 45 c4                        	lea eax, dword [ ebp + 0xffffffc4 ]
0x80491e2:   50                              	push eax
0x80491e3:   e8 e8 f5 ff ff                  	call 0x80487d0 <strcspn>
0x80491e8:   83 c4 10                        	add esp, 0x10
0x80491eb:   c6 44 05 c4 00                  	mov byte [ ebp + eax * 0x0 + 0xffffffc4 ], 0x0
0x80491f0:   c7 85 78 ff ff ff 00 00 00 00   	mov dword [ ebp + 0xffffff78 ], 0x0
0x80491fa:   eb 3c                           	jmp 0x8049238 <level_three+0xbe>
0x80491fc:   8d 55 c4                        	lea edx, dword [ ebp + 0xffffffc4 ]
0x80491ff:   8b 85 78 ff ff ff               	mov eax, dword [ ebp + 0xffffff78 ]
0x8049205:   01 d0                           	add eax, edx
0x8049207:   0f b6 00                        	movzx eax, byte [ eax ]
0x804920a:   0f be d8                        	movsx ebx, al
0x804920d:   8b 85 78 ff ff ff               	mov eax, dword [ ebp + 0xffffff78 ]
0x8049213:   8b 44 85 80                     	mov eax, dword [ ebp + eax * 0x2 + 0xffffff80 ]
0x8049217:   0f be c0                        	movsx eax, al
0x804921a:   83 ec 0c                        	sub esp, 0xc
0x804921d:   50                              	push eax
0x804921e:   e8 d7 fe ff ff                  	call 0x80490fa <tumbalek>
0x8049223:   83 c4 10                        	add esp, 0x10
0x8049226:   39 c3                           	cmp ebx, eax
0x8049228:   74 07                           	jz 0x8049231 <level_three+0xb7>
0x804922a:   b8 00 00 00 00                  	mov eax, 0x0
0x804922f:   eb 1a                           	jmp 0x804924b <level_three+0xd1>
0x8049231:   83 85 78 ff ff ff 01            	add dword [ ebp + 0xffffff78 ], 0x1
0x8049238:   8b 85 78 ff ff ff               	mov eax, dword [ ebp + 0xffffff78 ]
0x804923e:   3b 85 7c ff ff ff               	cmp eax, dword [ ebp + 0xffffff7c ]
0x8049244:   7c b6                           	jl 0x80491fc <level_three+0x82>
0x8049246:   b8 01 00 00 00                  	mov eax, 0x1
0x804924b:   8b 4d e4                        	mov ecx, dword [ ebp + 0xffffffe4 ]
0x804924e:   65                              	
0x804924f:   33 0d 14 00 00 00               	xor ecx, dword [ 0x14 ]
0x8049255:   74 05                           	jz 0x804925c <level_three+0xe2>
0x8049257:   e8 c4 f5 ff ff                  	call 0x8048820 <__stack_chk_fail>
0x804925c:   8d 65 f4                        	lea esp, dword [ ebp + 0xfffffff4 ]
0x804925f:   5b                              	pop ebx
0x8049260:   5e                              	pop esi
0x8049261:   5f                              	pop edi
0x8049262:   5d                              	pop ebp
0x8049263:   c3                              	ret
; function: ordinal at 0x8049264 -- 0x80492ab
0x8049264:   55                              	push ebp
0x8049265:   89 e5                           	mov ebp, esp
0x8049267:   83 ec 28                        	sub esp, 0x28
0x804926a:   8b 45 08                        	mov eax, dword [ ebp + 0x8 ]
0x804926d:   89 45 e4                        	mov dword [ ebp + 0xffffffe4 ], eax
0x8049270:   65                              	
0x8049271:   a1 14 00 00 00                  	mov eax, dword [ 0x14 ]
0x8049276:   89 45 f4                        	mov dword [ ebp + 0xfffffff4 ], eax
0x8049279:   31 c0                           	xor eax, eax
0x804927b:   c7 45 f0 00 00 00 00            	mov dword [ ebp + 0xfffffff0 ], 0x0
0x8049282:   eb 0c                           	jmp 0x8049290 <ordinal+0x2c>
0x8049284:   8b 45 e4                        	mov eax, dword [ ebp + 0xffffffe4 ]
0x8049287:   83 e0 01                        	and eax, 0x1
0x804928a:   01 45 f0                        	add dword [ ebp + 0xfffffff0 ], eax
0x804928d:   d1 7d e4                        	sar dword [ ebp + 0xffffffe4 ], 1
0x8049290:   83 7d e4 00                     	cmp dword [ ebp + 0xffffffe4 ], 0x0
0x8049294:   7f ee                           	jg 0x8049284 <ordinal+0x20>
0x8049296:   8b 45 f0                        	mov eax, dword [ ebp + 0xfffffff0 ]
0x8049299:   8b 55 f4                        	mov edx, dword [ ebp + 0xfffffff4 ]
0x804929c:   65                              	
0x804929d:   33 15 14 00 00 00               	xor edx, dword [ 0x14 ]
0x80492a3:   74 05                           	jz 0x80492aa <ordinal+0x46>
0x80492a5:   e8 76 f5 ff ff                  	call 0x8048820 <__stack_chk_fail>
0x80492aa:   c9                              	leave
0x80492ab:   c3                              	ret
; function: level_four at 0x80492ac -- 0x80493ee
0x80492ac:   55                              	push ebp
0x80492ad:   89 e5                           	mov ebp, esp
0x80492af:   83 ec 58                        	sub esp, 0x58
0x80492b2:   65                              	
0x80492b3:   a1 14 00 00 00                  	mov eax, dword [ 0x14 ]
0x80492b8:   89 45 f4                        	mov dword [ ebp + 0xfffffff4 ], eax
0x80492bb:   31 c0                           	xor eax, eax
0x80492bd:   c7 45 e7 47 43 54 46            	mov dword [ ebp + 0xffffffe7 ], 0x46544347
0x80492c4:   c7 45 eb 5f 54 4f 4f            	mov dword [ ebp + 0xffffffeb ], 0x4f4f545f
0x80492cb:   c7 45 ef 5f 46 55 4e            	mov dword [ ebp + 0xffffffef ], 0x4e55465f
0x80492d2:   c6 45 f3 00                     	mov byte [ ebp + 0xfffffff3 ], 0x0
0x80492d6:   6a 00                           	push 0x0
0x80492d8:   6a 00                           	push 0x0
0x80492da:   6a 00                           	push 0x0
0x80492dc:   6a 00                           	push 0x0
0x80492de:   e8 1d f6 ff ff                  	call 0x8048900 <ptrace>
0x80492e3:   83 c4 10                        	add esp, 0x10
0x80492e6:   83 f8 ff                        	cmp eax, 0xffffffff
0x80492e9:   75 1a                           	jnz 0x8049305 <level_four+0x59>
0x80492eb:   83 ec 0c                        	sub esp, 0xc
0x80492ee:   68 e4 9a 04 08                  	push 0x8049ae4 ; "GDB IS NOT ALLOWED!"
0x80492f3:   e8 48 f5 ff ff                  	call 0x8048840 <puts>
0x80492f8:   83 c4 10                        	add esp, 0x10
0x80492fb:   b8 01 00 00 00                  	mov eax, 0x1
0x8049300:   e9 d7 00 00 00                  	jmp 0x80493dc <level_four+0x130>
0x8049305:   a1 7c b0 04 08                  	mov eax, dword [ 0x804b07c ]
0x804930a:   83 ec 08                        	sub esp, 0x8
0x804930d:   6a 04                           	push 0x4
0x804930f:   50                              	push eax
0x8049310:   e8 ab f4 ff ff                  	call 0x80487c0 <printf>
0x8049315:   83 c4 10                        	add esp, 0x10
0x8049318:   83 ec 0c                        	sub esp, 0xc
0x804931b:   8d 45 b4                        	lea eax, dword [ ebp + 0xffffffb4 ]
0x804931e:   83 c0 2c                        	add eax, 0x2c
0x8049321:   50                              	push eax
0x8049322:   8d 45 b4                        	lea eax, dword [ ebp + 0xffffffb4 ]
0x8049325:   83 c0 28                        	add eax, 0x28
0x8049328:   50                              	push eax
0x8049329:   8d 45 b4                        	lea eax, dword [ ebp + 0xffffffb4 ]
0x804932c:   83 c0 24                        	add eax, 0x24
0x804932f:   50                              	push eax
0x8049330:   8d 45 b4                        	lea eax, dword [ ebp + 0xffffffb4 ]
0x8049333:   83 c0 20                        	add eax, 0x20
0x8049336:   50                              	push eax
0x8049337:   8d 45 b4                        	lea eax, dword [ ebp + 0xffffffb4 ]
0x804933a:   83 c0 1c                        	add eax, 0x1c
0x804933d:   50                              	push eax
0x804933e:   8d 45 b4                        	lea eax, dword [ ebp + 0xffffffb4 ]
0x8049341:   83 c0 18                        	add eax, 0x18
0x8049344:   50                              	push eax
0x8049345:   8d 45 b4                        	lea eax, dword [ ebp + 0xffffffb4 ]
0x8049348:   83 c0 14                        	add eax, 0x14
0x804934b:   50                              	push eax
0x804934c:   8d 45 b4                        	lea eax, dword [ ebp + 0xffffffb4 ]
0x804934f:   83 c0 10                        	add eax, 0x10
0x8049352:   50                              	push eax
0x8049353:   8d 45 b4                        	lea eax, dword [ ebp + 0xffffffb4 ]
0x8049356:   83 c0 0c                        	add eax, 0xc
0x8049359:   50                              	push eax
0x804935a:   8d 45 b4                        	lea eax, dword [ ebp + 0xffffffb4 ]
0x804935d:   83 c0 08                        	add eax, 0x8
0x8049360:   50                              	push eax
0x8049361:   8d 45 b4                        	lea eax, dword [ ebp + 0xffffffb4 ]
0x8049364:   83 c0 04                        	add eax, 0x4
0x8049367:   50                              	push eax
0x8049368:   8d 45 b4                        	lea eax, dword [ ebp + 0xffffffb4 ]
0x804936b:   50                              	push eax
0x804936c:   68 f8 9a 04 08                  	push 0x8049af8 ; "%d %d %d %d %d %d %d %d %d %d %d %d"
0x8049371:   e8 2a f5 ff ff                  	call 0x80488a0 <scanf>
0x8049376:   83 c4 40                        	add esp, 0x40
0x8049379:   90                              	nop
0x804937a:   e8 71 f4 ff ff                  	call 0x80487f0 <getchar>
0x804937f:   83 f8 0a                        	cmp eax, 0xa
0x8049382:   75 f6                           	jnz 0x804937a <level_four+0xce>
0x8049384:   c7 45 b0 00 00 00 00            	mov dword [ ebp + 0xffffffb0 ], 0x0
0x804938b:   eb 32                           	jmp 0x80493bf <level_four+0x113>
0x804938d:   8d 55 e7                        	lea edx, dword [ ebp + 0xffffffe7 ]
0x8049390:   8b 45 b0                        	mov eax, dword [ ebp + 0xffffffb0 ]
0x8049393:   01 d0                           	add eax, edx
0x8049395:   0f b6 00                        	movzx eax, byte [ eax ]
0x8049398:   0f be c0                        	movsx eax, al
0x804939b:   83 ec 0c                        	sub esp, 0xc
0x804939e:   50                              	push eax
0x804939f:   e8 c0 fe ff ff                  	call 0x8049264 <ordinal>
0x80493a4:   83 c4 10                        	add esp, 0x10
0x80493a7:   89 c2                           	mov edx, eax
0x80493a9:   8b 45 b0                        	mov eax, dword [ ebp + 0xffffffb0 ]
0x80493ac:   8b 44 85 b4                     	mov eax, dword [ ebp + eax * 0x2 + 0xffffffb4 ]
0x80493b0:   39 c2                           	cmp edx, eax
0x80493b2:   74 07                           	jz 0x80493bb <level_four+0x10f>
0x80493b4:   b8 00 00 00 00                  	mov eax, 0x0
0x80493b9:   eb 21                           	jmp 0x80493dc <level_four+0x130>
0x80493bb:   83 45 b0 01                     	add dword [ ebp + 0xffffffb0 ], 0x1
0x80493bf:   83 ec 0c                        	sub esp, 0xc
0x80493c2:   8d 45 e7                        	lea eax, dword [ ebp + 0xffffffe7 ]
0x80493c5:   50                              	push eax
0x80493c6:   e8 95 f4 ff ff                  	call 0x8048860 <strlen>
0x80493cb:   83 c4 10                        	add esp, 0x10
0x80493ce:   89 c2                           	mov edx, eax
0x80493d0:   8b 45 b0                        	mov eax, dword [ ebp + 0xffffffb0 ]
0x80493d3:   39 c2                           	cmp edx, eax
0x80493d5:   77 b6                           	ja 0x804938d <level_four+0xe1>
0x80493d7:   b8 01 00 00 00                  	mov eax, 0x1
0x80493dc:   8b 4d f4                        	mov ecx, dword [ ebp + 0xfffffff4 ]
0x80493df:   65                              	
0x80493e0:   33 0d 14 00 00 00               	xor ecx, dword [ 0x14 ]
0x80493e6:   74 05                           	jz 0x80493ed <level_four+0x141>
0x80493e8:   e8 33 f4 ff ff                  	call 0x8048820 <__stack_chk_fail>
0x80493ed:   c9                              	leave
0x80493ee:   c3                              	ret
; function: fov at 0x80493ef -- 0x80494df
0x80493ef:   55                              	push ebp
0x80493f0:   89 e5                           	mov ebp, esp
0x80493f2:   83 ec 48                        	sub esp, 0x48
0x80493f5:   8b 45 08                        	mov eax, dword [ ebp + 0x8 ]
0x80493f8:   89 45 c4                        	mov dword [ ebp + 0xffffffc4 ], eax
0x80493fb:   65                              	
0x80493fc:   a1 14 00 00 00                  	mov eax, dword [ 0x14 ]
0x8049401:   89 45 f4                        	mov dword [ ebp + 0xfffffff4 ], eax
0x8049404:   31 c0                           	xor eax, eax
0x8049406:   d9 05 ac 9b 04 08               	fld dword [ 0x8049bac ]
0x804940c:   d9 5d dc                        	fstp dword [ ebp + 0xffffffdc ]
0x804940f:   d9 45 c4                        	fld dword [ ebp + 0xffffffc4 ]
0x8049412:   d8 4d dc                        	fmul dword [ ebp + 0xffffffdc ]
0x8049415:   d9 7d c2                        	fnstcw word [ ebp + 0xffffffc2 ]
0x8049418:   0f b7 45 c2                     	movzx eax, word [ ebp + 0xffffffc2 ]
0x804941c:   b4 0c                           	mov ah, 0xc
0x804941e:   66 89 45 c0                     	mov word [ ebp + 0xffffffc0 ], ax
0x8049422:   d9 6d c0                        	fldcw word [ ebp + 0xffffffc0 ]
0x8049425:   db 5d e0                        	fistp dword [ ebp + 0xffffffe0 ]
0x8049428:   d9 6d c2                        	fldcw word [ ebp + 0xffffffc2 ]
0x804942b:   8b 45 e0                        	mov eax, dword [ ebp + 0xffffffe0 ]
0x804942e:   c1 e0 03                        	shl eax, 0x3
0x8049431:   ba 5f f3 04 85                  	mov edx, 0x8504f35f
0x8049436:   29 c2                           	sub edx, eax
0x8049438:   89 d0                           	mov eax, edx
0x804943a:   89 45 e4                        	mov dword [ ebp + 0xffffffe4 ], eax
0x804943d:   d9 45 c4                        	fld dword [ ebp + 0xffffffc4 ]
0x8049440:   d9 05 b0 9b 04 08               	fld dword [ 0x8049bb0 ]
0x8049446:   de c9                           	fmulp st(0x1), st(0)
0x8049448:   d9 5d e8                        	fstp dword [ ebp + 0xffffffe8 ]
0x804944b:   d9 45 c4                        	fld dword [ ebp + 0xffffffc4 ]
0x804944e:   d9 5d d8                        	fstp dword [ ebp + 0xffffffd8 ]
0x8049451:   8b 45 e4                        	mov eax, dword [ ebp + 0xffffffe4 ]
0x8049454:   c1 e0 02                        	shl eax, 0x2
0x8049457:   89 45 b8                        	mov dword [ ebp + 0xffffffb8 ], eax
0x804945a:   db 45 b8                        	fild dword [ ebp + 0xffffffb8 ]
0x804945d:   d9 5d ec                        	fstp dword [ ebp + 0xffffffec ]
0x8049460:   8d 45 d8                        	lea eax, dword [ ebp + 0xffffffd8 ]
0x8049463:   8b 00                           	mov eax, dword [ eax ]
0x8049465:   89 45 d4                        	mov dword [ ebp + 0xffffffd4 ], eax
0x8049468:   8b 45 d4                        	mov eax, dword [ ebp + 0xffffffd4 ]
0x804946b:   89 45 e4                        	mov dword [ ebp + 0xffffffe4 ], eax
0x804946e:   d9 45 d8                        	fld dword [ ebp + 0xffffffd8 ]
0x8049471:   d9 45 d8                        	fld dword [ ebp + 0xffffffd8 ]
0x8049474:   de c9                           	fmulp st(0x1), st(0)
0x8049476:   d8 4d e8                        	fmul dword [ ebp + 0xffffffe8 ]
0x8049479:   d9 6d c0                        	fldcw word [ ebp + 0xffffffc0 ]
0x804947c:   db 5d bc                        	fistp dword [ ebp + 0xffffffbc ]
0x804947f:   d9 6d c2                        	fldcw word [ ebp + 0xffffffc2 ]
0x8049482:   8b 45 bc                        	mov eax, dword [ ebp + 0xffffffbc ]
0x8049485:   89 45 d4                        	mov dword [ ebp + 0xffffffd4 ], eax
0x8049488:   8b 45 e4                        	mov eax, dword [ ebp + 0xffffffe4 ]
0x804948b:   d1 f8                           	sar eax, 1
0x804948d:   ba df 59 37 5f                  	mov edx, 0x5f3759df
0x8049492:   29 c2                           	sub edx, eax
0x8049494:   89 d0                           	mov eax, edx
0x8049496:   89 45 d4                        	mov dword [ ebp + 0xffffffd4 ], eax
0x8049499:   8d 45 d4                        	lea eax, dword [ ebp + 0xffffffd4 ]
0x804949c:   d9 00                           	fld dword [ eax ]
0x804949e:   d9 5d d8                        	fstp dword [ ebp + 0xffffffd8 ]
0x80494a1:   d9 45 c4                        	fld dword [ ebp + 0xffffffc4 ]
0x80494a4:   d8 45 dc                        	fadd dword [ ebp + 0xffffffdc ]
0x80494a7:   d9 6d c0                        	fldcw word [ ebp + 0xffffffc0 ]
0x80494aa:   db 5d f0                        	fistp dword [ ebp + 0xfffffff0 ]
0x80494ad:   d9 6d c2                        	fldcw word [ ebp + 0xffffffc2 ]
0x80494b0:   d9 45 d8                        	fld dword [ ebp + 0xffffffd8 ]
0x80494b3:   d8 4d e8                        	fmul dword [ ebp + 0xffffffe8 ]
0x80494b6:   d9 45 d8                        	fld dword [ ebp + 0xffffffd8 ]
0x80494b9:   de c9                           	fmulp st(0x1), st(0)
0x80494bb:   d9 45 dc                        	fld dword [ ebp + 0xffffffdc ]
0x80494be:   de e1                           	fsubrp st(0x1), st(0)
0x80494c0:   d9 45 d8                        	fld dword [ ebp + 0xffffffd8 ]
0x80494c3:   de c9                           	fmulp st(0x1), st(0)
0x80494c5:   d9 5d d8                        	fstp dword [ ebp + 0xffffffd8 ]
0x80494c8:   d9 45 d8                        	fld dword [ ebp + 0xffffffd8 ]
0x80494cb:   8b 45 f4                        	mov eax, dword [ ebp + 0xfffffff4 ]
0x80494ce:   65                              	
0x80494cf:   33 05 14 00 00 00               	xor eax, dword [ 0x14 ]
0x80494d5:   74 07                           	jz 0x80494de <fov+0xef>
0x80494d7:   dd d8                           	fstp st(0x0)
0x80494d9:   e8 42 f3 ff ff                  	call 0x8048820 <__stack_chk_fail>
0x80494de:   c9                              	leave
0x80494df:   c3                              	ret
; function: level_five at 0x80494e0 -- 0x804964a
0x80494e0:   55                              	push ebp
0x80494e1:   89 e5                           	mov ebp, esp
0x80494e3:   53                              	push ebx
0x80494e4:   83 ec 44                        	sub esp, 0x44
0x80494e7:   65                              	
0x80494e8:   a1 14 00 00 00                  	mov eax, dword [ 0x14 ]
0x80494ed:   89 45 f4                        	mov dword [ ebp + 0xfffffff4 ], eax
0x80494f0:   31 c0                           	xor eax, eax
0x80494f2:   c7 45 cc 03 00 00 00            	mov dword [ ebp + 0xffffffcc ], 0x3
0x80494f9:   c7 45 d0 01 00 00 00            	mov dword [ ebp + 0xffffffd0 ], 0x1
0x8049500:   c7 45 d4 03 00 00 00            	mov dword [ ebp + 0xffffffd4 ], 0x3
0x8049507:   c7 45 d8 03 00 00 00            	mov dword [ ebp + 0xffffffd8 ], 0x3
0x804950e:   c7 45 dc 07 00 00 00            	mov dword [ ebp + 0xffffffdc ], 0x7
0x8049515:   a1 7c b0 04 08                  	mov eax, dword [ 0x804b07c ]
0x804951a:   83 ec 08                        	sub esp, 0x8
0x804951d:   6a 05                           	push 0x5
0x804951f:   50                              	push eax
0x8049520:   e8 9b f2 ff ff                  	call 0x80487c0 <printf>
0x8049525:   83 c4 10                        	add esp, 0x10
0x8049528:   83 ec 08                        	sub esp, 0x8
0x804952b:   8d 45 e0                        	lea eax, dword [ ebp + 0xffffffe0 ]
0x804952e:   83 c0 10                        	add eax, 0x10
0x8049531:   50                              	push eax
0x8049532:   8d 45 e0                        	lea eax, dword [ ebp + 0xffffffe0 ]
0x8049535:   83 c0 0c                        	add eax, 0xc
0x8049538:   50                              	push eax
0x8049539:   8d 45 e0                        	lea eax, dword [ ebp + 0xffffffe0 ]
0x804953c:   83 c0 08                        	add eax, 0x8
0x804953f:   50                              	push eax
0x8049540:   8d 45 e0                        	lea eax, dword [ ebp + 0xffffffe0 ]
0x8049543:   83 c0 04                        	add eax, 0x4
0x8049546:   50                              	push eax
0x8049547:   8d 45 e0                        	lea eax, dword [ ebp + 0xffffffe0 ]
0x804954a:   50                              	push eax
0x804954b:   68 1c 9b 04 08                  	push 0x8049b1c ; "%f %f %f %f %f"
0x8049550:   e8 4b f3 ff ff                  	call 0x80488a0 <scanf>
0x8049555:   83 c4 20                        	add esp, 0x20
0x8049558:   90                              	nop
0x8049559:   e8 92 f2 ff ff                  	call 0x80487f0 <getchar>
0x804955e:   83 f8 0a                        	cmp eax, 0xa
0x8049561:   75 f6                           	jnz 0x8049559 <level_five+0x79>
0x8049563:   c7 45 c8 00 00 00 00            	mov dword [ ebp + 0xffffffc8 ], 0x0
0x804956a:   e9 b7 00 00 00                  	jmp 0x8049626 <level_five+0x146>
0x804956f:   8b 45 c8                        	mov eax, dword [ ebp + 0xffffffc8 ]
0x8049572:   8b 5c 85 cc                     	mov ebx, dword [ ebp + eax * 0x2 + 0xffffffcc ]
0x8049576:   8b 45 c8                        	mov eax, dword [ ebp + 0xffffffc8 ]
0x8049579:   d9 44 85 e0                     	fld dword [ ebp + eax * 0x2 + 0xffffffe0 ]
0x804957d:   83 ec 0c                        	sub esp, 0xc
0x8049580:   8d 64 24 fc                     	lea esp, dword [ esp + 0xfffffffc ]
0x8049584:   d9 1c 24                        	fstp dword [ esp ]
0x8049587:   e8 63 fe ff ff                  	call 0x80493ef <fov>
0x804958c:   83 c4 10                        	add esp, 0x10
0x804958f:   83 ec 08                        	sub esp, 0x8
0x8049592:   8d 64 24 f8                     	lea esp, dword [ esp + 0xfffffff8 ]
0x8049596:   dd 1c 24                        	fstp qword [ esp ]
0x8049599:   e8 e2 f1 ff ff                  	call 0x8048780 <round>
0x804959e:   83 c4 10                        	add esp, 0x10
0x80495a1:   d9 7d c6                        	fnstcw word [ ebp + 0xffffffc6 ]
0x80495a4:   0f b7 45 c6                     	movzx eax, word [ ebp + 0xffffffc6 ]
0x80495a8:   b4 0c                           	mov ah, 0xc
0x80495aa:   66 89 45 c4                     	mov word [ ebp + 0xffffffc4 ], ax
0x80495ae:   d9 6d c4                        	fldcw word [ ebp + 0xffffffc4 ]
0x80495b1:   db 5d c0                        	fistp dword [ ebp + 0xffffffc0 ]
0x80495b4:   d9 6d c6                        	fldcw word [ ebp + 0xffffffc6 ]
0x80495b7:   8b 45 c0                        	mov eax, dword [ ebp + 0xffffffc0 ]
0x80495ba:   83 ec 04                        	sub esp, 0x4
0x80495bd:   53                              	push ebx
0x80495be:   50                              	push eax
0x80495bf:   68 2b 9b 04 08                  	push 0x8049b2b ; "%d %d\n"
0x80495c4:   e8 f7 f1 ff ff                  	call 0x80487c0 <printf>
0x80495c9:   83 c4 10                        	add esp, 0x10
0x80495cc:   8b 45 c8                        	mov eax, dword [ ebp + 0xffffffc8 ]
0x80495cf:   d9 44 85 e0                     	fld dword [ ebp + eax * 0x2 + 0xffffffe0 ]
0x80495d3:   83 ec 0c                        	sub esp, 0xc
0x80495d6:   8d 64 24 fc                     	lea esp, dword [ esp + 0xfffffffc ]
0x80495da:   d9 1c 24                        	fstp dword [ esp ]
0x80495dd:   e8 0d fe ff ff                  	call 0x80493ef <fov>
0x80495e2:   83 c4 10                        	add esp, 0x10
0x80495e5:   83 ec 08                        	sub esp, 0x8
0x80495e8:   8d 64 24 f8                     	lea esp, dword [ esp + 0xfffffff8 ]
0x80495ec:   dd 1c 24                        	fstp qword [ esp ]
0x80495ef:   e8 8c f1 ff ff                  	call 0x8048780 <round>
0x80495f4:   83 c4 10                        	add esp, 0x10
0x80495f7:   d9 7d c6                        	fnstcw word [ ebp + 0xffffffc6 ]
0x80495fa:   0f b7 45 c6                     	movzx eax, word [ ebp + 0xffffffc6 ]
0x80495fe:   b4 0c                           	mov ah, 0xc
0x8049600:   66 89 45 c4                     	mov word [ ebp + 0xffffffc4 ], ax
0x8049604:   d9 6d c4                        	fldcw word [ ebp + 0xffffffc4 ]
0x8049607:   db 5d c0                        	fistp dword [ ebp + 0xffffffc0 ]
0x804960a:   d9 6d c6                        	fldcw word [ ebp + 0xffffffc6 ]
0x804960d:   8b 55 c0                        	mov edx, dword [ ebp + 0xffffffc0 ]
0x8049610:   8b 45 c8                        	mov eax, dword [ ebp + 0xffffffc8 ]
0x8049613:   8b 44 85 cc                     	mov eax, dword [ ebp + eax * 0x2 + 0xffffffcc ]
0x8049617:   39 c2                           	cmp edx, eax
0x8049619:   74 07                           	jz 0x8049622 <level_five+0x142>
0x804961b:   b8 00 00 00 00                  	mov eax, 0x0
0x8049620:   eb 13                           	jmp 0x8049635 <level_five+0x155>
0x8049622:   83 45 c8 01                     	add dword [ ebp + 0xffffffc8 ], 0x1
0x8049626:   83 7d c8 04                     	cmp dword [ ebp + 0xffffffc8 ], 0x4
0x804962a:   0f 8e 3f ff ff ff               	jle 0x804956f <level_five+0x8f>
0x8049630:   b8 01 00 00 00                  	mov eax, 0x1
0x8049635:   8b 4d f4                        	mov ecx, dword [ ebp + 0xfffffff4 ]
0x8049638:   65                              	
0x8049639:   33 0d 14 00 00 00               	xor ecx, dword [ 0x14 ]
0x804963f:   74 05                           	jz 0x8049646 <level_five+0x166>
0x8049641:   e8 da f1 ff ff                  	call 0x8048820 <__stack_chk_fail>
0x8049646:   8b 5d fc                        	mov ebx, dword [ ebp + 0xfffffffc ]
0x8049649:   c9                              	leave
0x804964a:   c3                              	ret
; function: bonus at 0x804964b -- 0x8049712
0x804964b:   55                              	push ebp
0x804964c:   89 e5                           	mov ebp, esp
0x804964e:   83 ec 58                        	sub esp, 0x58
0x8049651:   65                              	
0x8049652:   a1 14 00 00 00                  	mov eax, dword [ 0x14 ]
0x8049657:   89 45 f4                        	mov dword [ ebp + 0xfffffff4 ], eax
0x804965a:   31 c0                           	xor eax, eax
0x804965c:   c7 45 d2 64 31 64 20            	mov dword [ ebp + 0xffffffd2 ], 0x20643164
0x8049663:   c7 45 d6 79 30 75 20            	mov dword [ ebp + 0xffffffd6 ], 0x20753079
0x804966a:   c7 45 da 37 68 31 6e            	mov dword [ ebp + 0xffffffda ], 0x6e316837
0x8049671:   c7 45 de 6b 20 37 68            	mov dword [ ebp + 0xffffffde ], 0x6837206b
0x8049678:   c7 45 e2 31 35 20 77            	mov dword [ ebp + 0xffffffe2 ], 0x77203531
0x804967f:   c7 45 e6 30 75 6c 64            	mov dword [ ebp + 0xffffffe6 ], 0x646c7530
0x8049686:   c7 45 ea 20 62 33 20            	mov dword [ ebp + 0xffffffea ], 0x20336220
0x804968d:   c7 45 ee 33 34 35 79            	mov dword [ ebp + 0xffffffee ], 0x79353433
0x8049694:   66 c7 45 f2 3f 00               	mov word [ ebp + 0xfffffff2 ], 0x3f
0x804969a:   a1 7c b0 04 08                  	mov eax, dword [ 0x804b07c ]
0x804969f:   83 ec 08                        	sub esp, 0x8
0x80496a2:   6a 63                           	push 0x63
0x80496a4:   50                              	push eax
0x80496a5:   e8 16 f1 ff ff                  	call 0x80487c0 <printf>
0x80496aa:   83 c4 10                        	add esp, 0x10
0x80496ad:   a1 80 b0 04 08                  	mov eax, dword [ 0x804b080 ]
0x80496b2:   83 ec 04                        	sub esp, 0x4
0x80496b5:   50                              	push eax
0x80496b6:   6a 20                           	push 0x20
0x80496b8:   8d 45 b2                        	lea eax, dword [ ebp + 0xffffffb2 ]
0x80496bb:   50                              	push eax
0x80496bc:   e8 3f f1 ff ff                  	call 0x8048800 <fgets>
0x80496c1:   83 c4 10                        	add esp, 0x10
0x80496c4:   83 ec 08                        	sub esp, 0x8
0x80496c7:   68 87 9a 04 08                  	push 0x8049a87
0x80496cc:   8d 45 b2                        	lea eax, dword [ ebp + 0xffffffb2 ]
0x80496cf:   50                              	push eax
0x80496d0:   e8 fb f0 ff ff                  	call 0x80487d0 <strcspn>
0x80496d5:   83 c4 10                        	add esp, 0x10
0x80496d8:   c6 44 05 b2 00                  	mov byte [ ebp + eax * 0x0 + 0xffffffb2 ], 0x0
0x80496dd:   83 ec 08                        	sub esp, 0x8
0x80496e0:   8d 45 b2                        	lea eax, dword [ ebp + 0xffffffb2 ]
0x80496e3:   50                              	push eax
0x80496e4:   8d 45 d2                        	lea eax, dword [ ebp + 0xffffffd2 ]
0x80496e7:   50                              	push eax
0x80496e8:   e8 c3 f0 ff ff                  	call 0x80487b0 <strcmp>
0x80496ed:   83 c4 10                        	add esp, 0x10
0x80496f0:   85 c0                           	test eax, eax
0x80496f2:   75 07                           	jnz 0x80496fb <bonus+0xb0>
0x80496f4:   b8 01 00 00 00                  	mov eax, 0x1
0x80496f9:   eb 05                           	jmp 0x8049700 <bonus+0xb5>
0x80496fb:   b8 00 00 00 00                  	mov eax, 0x0
0x8049700:   8b 55 f4                        	mov edx, dword [ ebp + 0xfffffff4 ]
0x8049703:   65                              	
0x8049704:   33 15 14 00 00 00               	xor edx, dword [ 0x14 ]
0x804970a:   74 05                           	jz 0x8049711 <bonus+0xc6>
0x804970c:   e8 0f f1 ff ff                  	call 0x8048820 <__stack_chk_fail>
0x8049711:   c9                              	leave
0x8049712:   c3                              	ret
; function: main at 0x8049713 -- 0x804980f
0x8049713:   8d 4c 24 04                     	lea ecx, dword [ esp + 0x4 ]
0x8049717:   83 e4 f0                        	and esp, 0xfffffff0
0x804971a:   ff 71 fc                        	push dword [ ecx + 0xfffffffc ]
0x804971d:   55                              	push ebp
0x804971e:   89 e5                           	mov ebp, esp
0x8049720:   51                              	push ecx
0x8049721:   83 ec 14                        	sub esp, 0x14
0x8049724:   65                              	
0x8049725:   a1 14 00 00 00                  	mov eax, dword [ 0x14 ]
0x804972a:   89 45 f4                        	mov dword [ ebp + 0xfffffff4 ], eax
0x804972d:   31 c0                           	xor eax, eax
0x804972f:   a1 84 b0 04 08                  	mov eax, dword [ 0x804b084 ]
0x8049734:   83 ec 08                        	sub esp, 0x8
0x8049737:   6a 00                           	push 0x0
0x8049739:   50                              	push eax
0x804973a:   e8 51 f0 ff ff                  	call 0x8048790 <setbuf>
0x804973f:   83 c4 10                        	add esp, 0x10
0x8049742:   e8 6b f8 ff ff                  	call 0x8048fb2 <level_one>
0x8049747:   85 c0                           	test eax, eax
0x8049749:   0f 84 8d 00 00 00               	jz 0x80497dc <main+0xc9>
0x804974f:   83 ec 0c                        	sub esp, 0xc
0x8049752:   68 32 9b 04 08                  	push 0x8049b32 ; "GCTF{FLAG_ONE}"
0x8049757:   e8 e4 f0 ff ff                  	call 0x8048840 <puts>
0x804975c:   83 c4 10                        	add esp, 0x10
0x804975f:   e8 de f8 ff ff                  	call 0x8049042 <level_two>
0x8049764:   85 c0                           	test eax, eax
0x8049766:   74 74                           	jz 0x80497dc <main+0xc9>
0x8049768:   83 ec 0c                        	sub esp, 0xc
0x804976b:   68 41 9b 04 08                  	push 0x8049b41 ; "GCTF{FLAG_TWO}"
0x8049770:   e8 cb f0 ff ff                  	call 0x8048840 <puts>
0x8049775:   83 c4 10                        	add esp, 0x10
0x8049778:   e8 fd f9 ff ff                  	call 0x804917a <level_three>
0x804977d:   85 c0                           	test eax, eax
0x804977f:   74 5b                           	jz 0x80497dc <main+0xc9>
0x8049781:   83 ec 0c                        	sub esp, 0xc
0x8049784:   68 50 9b 04 08                  	push 0x8049b50 ; "GCTF{FLAG_THREE}"
0x8049789:   e8 b2 f0 ff ff                  	call 0x8048840 <puts>
0x804978e:   83 c4 10                        	add esp, 0x10
0x8049791:   e8 16 fb ff ff                  	call 0x80492ac <level_four>
0x8049796:   85 c0                           	test eax, eax
0x8049798:   74 42                           	jz 0x80497dc <main+0xc9>
0x804979a:   83 ec 0c                        	sub esp, 0xc
0x804979d:   68 61 9b 04 08                  	push 0x8049b61 ; "GCTF{FLAG_FOUR}"
0x80497a2:   e8 99 f0 ff ff                  	call 0x8048840 <puts>
0x80497a7:   83 c4 10                        	add esp, 0x10
0x80497aa:   e8 31 fd ff ff                  	call 0x80494e0 <level_five>
0x80497af:   85 c0                           	test eax, eax
0x80497b1:   74 29                           	jz 0x80497dc <main+0xc9>
0x80497b3:   83 ec 0c                        	sub esp, 0xc
0x80497b6:   68 71 9b 04 08                  	push 0x8049b71 ; "GCTF{FLAG_FIVE}"
0x80497bb:   e8 80 f0 ff ff                  	call 0x8048840 <puts>
0x80497c0:   83 c4 10                        	add esp, 0x10
0x80497c3:   e8 83 fe ff ff                  	call 0x804964b <bonus>
0x80497c8:   85 c0                           	test eax, eax
0x80497ca:   74 10                           	jz 0x80497dc <main+0xc9>
0x80497cc:   83 ec 0c                        	sub esp, 0xc
0x80497cf:   68 81 9b 04 08                  	push 0x8049b81 ; "GCTF{FLAG_BONUS}"
0x80497d4:   e8 67 f0 ff ff                  	call 0x8048840 <puts>
0x80497d9:   83 c4 10                        	add esp, 0x10
0x80497dc:   83 ec 0c                        	sub esp, 0xc
0x80497df:   68 92 9b 04 08                  	push 0x8049b92 ; "y0u 4r3n'7 600d 3n0u6h!"
0x80497e4:   e8 57 f0 ff ff                  	call 0x8048840 <puts>
0x80497e9:   83 c4 10                        	add esp, 0x10
0x80497ec:   b8 01 00 00 00                  	mov eax, 0x1
0x80497f1:   8b 55 f4                        	mov edx, dword [ ebp + 0xfffffff4 ]
0x80497f4:   65                              	
0x80497f5:   33 15 14 00 00 00               	xor edx, dword [ 0x14 ]
0x80497fb:   74 05                           	jz 0x8049802 <main+0xef>
0x80497fd:   e8 1e f0 ff ff                  	call 0x8048820 <__stack_chk_fail>
0x8049802:   8b 4d fc                        	mov ecx, dword [ ebp + 0xfffffffc ]
0x8049805:   c9                              	leave
0x8049806:   8d 61 fc                        	lea esp, dword [ ecx + 0xfffffffc ]
0x8049809:   c3                              	ret
0x804980a:   66 90                           	xchg ax, ax
0x804980c:   66 90                           	xchg ax, ax
0x804980e:   66 90                           	xchg ax, ax
; function: __libc_csu_init at 0x8049810 -- 0x804986c
0x8049810:   55                              	push ebp
0x8049811:   57                              	push edi
0x8049812:   56                              	push esi
0x8049813:   53                              	push ebx
0x8049814:   e8 47 f1 ff ff                  	call 0x8048960 <__x86.get_pc_thunk.bx>
0x8049819:   81 c3 e7 17 00 00               	add ebx, 0x17e7
0x804981f:   83 ec 0c                        	sub esp, 0xc
0x8049822:   8b 6c 24 20                     	mov ebp, dword [ esp + 0x20 ]
0x8049826:   8d b3 fc fe ff ff               	lea esi, dword [ ebx + 0xfffffefc ]
0x804982c:   e8 13 ef ff ff                  	call 0x8048744 <_init>
0x8049831:   8d 83 f4 fe ff ff               	lea eax, dword [ ebx + 0xfffffef4 ]
0x8049837:   29 c6                           	sub esi, eax
0x8049839:   c1 fe 02                        	sar esi, 0x2
0x804983c:   85 f6                           	test esi, esi
0x804983e:   74 25                           	jz 0x8049865 <__libc_csu_init+0x55>
0x8049840:   31 ff                           	xor edi, edi
0x8049842:   8d b6 00 00 00 00               	lea esi, dword [ esi + 0x0 ]
0x8049848:   83 ec 04                        	sub esp, 0x4
0x804984b:   ff 74 24 2c                     	push dword [ esp + 0x2c ]
0x804984f:   ff 74 24 2c                     	push dword [ esp + 0x2c ]
0x8049853:   55                              	push ebp
0x8049854:   ff 94 bb f4 fe ff ff            	call dword [ ebx + edi * 0x2 + 0xfffffef4 ]
0x804985b:   83 c7 01                        	add edi, 0x1
0x804985e:   83 c4 10                        	add esp, 0x10
0x8049861:   39 f7                           	cmp edi, esi
0x8049863:   75 e3                           	jnz 0x8049848 <__libc_csu_init+0x38>
0x8049865:   83 c4 0c                        	add esp, 0xc
0x8049868:   5b                              	pop ebx
0x8049869:   5e                              	pop esi
0x804986a:   5f                              	pop edi
0x804986b:   5d                              	pop ebp
0x804986c:   c3                              	ret
; function: function_804986d at 0x804986d -- 0x804986f
0x804986d:   8d 76 00                        	lea esi, dword [ esi + 0x0 ]
; function: __libc_csu_fini at 0x8049870 -- 0x8049871
0x8049870:   f3 c3                           	rep ret
; section: .fini
; function: _fini at 0x8049874 -- 0x8049887
0x8049874:   53                              	push ebx
0x8049875:   83 ec 08                        	sub esp, 0x8
0x8049878:   e8 e3 f0 ff ff                  	call 0x8048960 <__x86.get_pc_thunk.bx>
0x804987d:   81 c3 83 17 00 00               	add ebx, 0x1783
0x8049883:   83 c4 08                        	add esp, 0x8
0x8049886:   5b                              	pop ebx
0x8049887:   c3                              	ret

;;
;; Data Segment
;;

; section: .interp
0x8048154:   2f 6c 69 62 2f 6c 64 2d  6c 69 6e 75 78 2e 73 6f   |/lib/ld-linux.so|
0x8048164:   2e 32 00                                           |.2.             |
; section: .gnu.hash
0x80481ac:   03 00 00 00 1f 00 00 00  01 00 00 00 05 00 00 00   |................|
0x80481bc:   80 2b 00 20 1f 00 00 00  20 00 00 00 00 00 00 00   |.+. .... .......|
0x80481cc:   29 1d 8c 1c ac 4b e3 c0  67 55 61 10               |)....K..gUa.    |
; section: .dynsym
0x80481d8:   00 00 00 00 00 00 00 00  00 00 00 00 00 00 00 00   |................|
0x80481e8:   64 00 00 00 00 00 00 00  00 00 00 00 12 00 00 00   |d...............|
0x80481f8:   46 01 00 00 00 00 00 00  00 00 00 00 12 00 00 00   |F...............|
0x8048208:   14 01 00 00 00 00 00 00  00 00 00 00 12 00 00 00   |................|
0x8048218:   4d 01 00 00 00 00 00 00  00 00 00 00 12 00 00 00   |M...............|
0x8048228:   0b 00 00 00 00 00 00 00  00 00 00 00 20 00 00 00   |............ ...|
0x8048238:   c2 00 00 00 00 00 00 00  00 00 00 00 12 00 00 00   |................|
0x8048248:   1b 01 00 00 00 00 00 00  00 00 00 00 12 00 00 00   |................|
0x8048258:   2a 01 00 00 00 00 00 00  00 00 00 00 12 00 00 00   |*...............|
0x8048268:   0c 01 00 00 00 00 00 00  00 00 00 00 12 00 00 00   |................|
0x8048278:   ff 00 00 00 00 00 00 00  00 00 00 00 12 00 00 00   |................|
0x8048288:   e3 00 00 00 00 00 00 00  00 00 00 00 12 00 00 00   |................|
0x8048298:   e8 00 00 00 00 00 00 00  00 00 00 00 12 00 00 00   |................|
0x80482a8:   bb 00 00 00 00 00 00 00  00 00 00 00 12 00 00 00   |................|
0x80482b8:   de 00 00 00 00 00 00 00  00 00 00 00 12 00 00 00   |................|
0x80482c8:   27 00 00 00 00 00 00 00  00 00 00 00 20 00 00 00   |'........... ...|
0x80482d8:   c9 00 00 00 00 00 00 00  00 00 00 00 12 00 00 00   |................|
0x80482e8:   05 01 00 00 00 00 00 00  00 00 00 00 12 00 00 00   |................|
0x80482f8:   54 01 00 00 00 00 00 00  00 00 00 00 12 00 00 00   |T...............|
0x8048308:   ca 00 00 00 00 00 00 00  00 00 00 00 12 00 00 00   |................|
0x8048318:   36 00 00 00 00 00 00 00  00 00 00 00 20 00 00 00   |6........... ...|
0x8048328:   c1 00 00 00 00 00 00 00  00 00 00 00 12 00 00 00   |................|
0x8048338:   cf 00 00 00 00 00 00 00  00 00 00 00 12 00 00 00   |................|
0x8048348:   b4 00 00 00 00 00 00 00  00 00 00 00 12 00 00 00   |................|
0x8048358:   7a 00 00 00 00 00 00 00  00 00 00 00 12 00 00 00   |z...............|
0x8048368:   4a 00 00 00 00 00 00 00  00 00 00 00 20 00 00 00   |J........... ...|
0x8048378:   31 01 00 00 00 00 00 00  00 00 00 00 12 00 00 00   |1...............|
0x8048388:   8e 00 00 00 00 00 00 00  00 00 00 00 12 00 00 00   |................|
0x8048398:   96 00 00 00 00 00 00 00  00 00 00 00 12 00 00 00   |................|
0x80483a8:   3f 01 00 00 00 00 00 00  00 00 00 00 12 00 00 00   |?...............|
0x80483b8:   89 00 00 00 00 00 00 00  00 00 00 00 12 00 00 00   |................|
0x80483c8:   23 01 00 00 84 b0 04 08  04 00 00 00 11 00 1a 00   |#...............|
0x80483d8:   a5 00 00 00 a4 98 04 08  04 00 00 00 11 00 10 00   |................|
0x80483e8:   f9 00 00 00 80 b0 04 08  04 00 00 00 11 00 1a 00   |................|
; section: .dynstr
0x80483f8:   00 6c 69 62 6d 2e 73 6f  2e 36 00 5f 49 54 4d 5f   |.libm.so.6._ITM_|
0x8048408:   64 65 72 65 67 69 73 74  65 72 54 4d 43 6c 6f 6e   |deregisterTMClon|
0x8048418:   65 54 61 62 6c 65 00 5f  5f 67 6d 6f 6e 5f 73 74   |eTable.__gmon_st|
0x8048428:   61 72 74 5f 5f 00 5f 4a  76 5f 52 65 67 69 73 74   |art__._Jv_Regist|
0x8048438:   65 72 43 6c 61 73 73 65  73 00 5f 49 54 4d 5f 72   |erClasses._ITM_r|
0x8048448:   65 67 69 73 74 65 72 54  4d 43 6c 6f 6e 65 54 61   |egisterTMCloneTa|
0x8048458:   62 6c 65 00 72 6f 75 6e  64 00 6c 69 62 70 74 68   |ble.round.libpth|
0x8048468:   72 65 61 64 2e 73 6f 2e  30 00 70 74 68 72 65 61   |read.so.0.pthrea|
0x8048478:   64 5f 63 72 65 61 74 65  00 73 65 6e 64 00 63 6f   |d_create.send.co|
0x8048488:   6e 6e 65 63 74 00 72 65  63 76 00 6c 69 62 63 2e   |nnect.recv.libc.|
0x8048498:   73 6f 2e 36 00 5f 49 4f  5f 73 74 64 69 6e 5f 75   |so.6._IO_stdin_u|
0x80484a8:   73 65 64 00 73 6f 63 6b  65 74 00 68 74 6f 6e 73   |sed.socket.htons|
0x80484b8:   00 73 70 72 69 6e 74 66  00 73 72 61 6e 64 00 5f   |.sprintf.srand._|
0x80484c8:   5f 69 73 6f 63 39 39 5f  73 63 61 6e 66 00 70 75   |_isoc99_scanf.pu|
0x80484d8:   74 73 00 74 69 6d 65 00  5f 5f 73 74 61 63 6b 5f   |ts.time.__stack_|
0x80484e8:   63 68 6b 5f 66 61 69 6c  00 73 74 64 69 6e 00 66   |chk_fail.stdin.f|
0x80484f8:   67 65 74 73 00 73 74 72  6c 65 6e 00 67 65 74 63   |gets.strlen.getc|
0x8048508:   68 61 72 00 73 74 72 73  74 72 00 73 74 72 63 73   |har.strstr.strcs|
0x8048518:   70 6e 00 73 74 64 6f 75  74 00 6d 65 6d 63 70 79   |pn.stdout.memcpy|
0x8048528:   00 67 65 74 68 6f 73 74  62 79 6e 61 6d 65 00 70   |.gethostbyname.p|
0x8048538:   74 72 61 63 65 00 73 65  74 62 75 66 00 73 74 72   |trace.setbuf.str|
0x8048548:   63 6d 70 00 5f 5f 6c 69  62 63 5f 73 74 61 72 74   |cmp.__libc_start|
0x8048558:   5f 6d 61 69 6e 00 47 4c  49 42 43 5f 32 2e 30 00   |_main.GLIBC_2.0.|
0x8048568:   47 4c 49 42 43 5f 32 2e  31 00 47 4c 49 42 43 5f   |GLIBC_2.1.GLIBC_|
0x8048578:   32 2e 37 00 47 4c 49 42  43 5f 32 2e 34 00         |2.7.GLIBC_2.4.  |
; section: .gnu.version
0x8048586:   00 00 02 00 03 00 03 00  03 00 00 00 03 00 03 00   |................|
0x8048596:   03 00 03 00 03 00 03 00  04 00 03 00 03 00 00 00   |................|
0x80485a6:   03 00 03 00 03 00 03 00  00 00 03 00 05 00 03 00   |................|
0x80485b6:   06 00 00 00 03 00 07 00  07 00 03 00 07 00 03 00   |................|
0x80485c6:   01 00 03 00                                        |....            |
; section: .gnu.version_r
0x80485cc:   01 00 02 00 6a 00 00 00  10 00 00 00 30 00 00 00   |....j.......0...|
0x80485dc:   10 69 69 0d 00 00 07 00  66 01 00 00 10 00 00 00   |.ii.....f.......|
0x80485ec:   11 69 69 0d 00 00 06 00  70 01 00 00 00 00 00 00   |.ii.....p.......|
0x80485fc:   01 00 03 00 9b 00 00 00  10 00 00 00 40 00 00 00   |............@...|
0x804860c:   17 69 69 0d 00 00 05 00  7a 01 00 00 10 00 00 00   |.ii.....z.......|
0x804861c:   14 69 69 0d 00 00 04 00  84 01 00 00 10 00 00 00   |.ii.............|
0x804862c:   10 69 69 0d 00 00 03 00  66 01 00 00 00 00 00 00   |.ii.....f.......|
0x804863c:   01 00 01 00 01 00 00 00  10 00 00 00 00 00 00 00   |................|
0x804864c:   11 69 69 0d 00 00 02 00  70 01 00 00 00 00 00 00   |.ii.....p.......|
; section: .rel.dyn
0x804865c:   fc af 04 08 06 0f 00 00  80 b0 04 08 05 21 00 00   |.............!..|
0x804866c:   84 b0 04 08 05 1f 00 00                            |........        |
; section: .rel.plt
0x8048674:   0c b0 04 08 07 01 00 00  10 b0 04 08 07 02 00 00   |................|
0x8048684:   14 b0 04 08 07 03 00 00  18 b0 04 08 07 04 00 00   |................|
0x8048694:   1c b0 04 08 07 06 00 00  20 b0 04 08 07 07 00 00   |........ .......|
0x80486a4:   24 b0 04 08 07 08 00 00  28 b0 04 08 07 09 00 00   |$.......(.......|
0x80486b4:   2c b0 04 08 07 0a 00 00  30 b0 04 08 07 0b 00 00   |,.......0.......|
0x80486c4:   34 b0 04 08 07 0c 00 00  38 b0 04 08 07 0d 00 00   |4.......8.......|
0x80486d4:   3c b0 04 08 07 0e 00 00  40 b0 04 08 07 10 00 00   |<.......@.......|
0x80486e4:   44 b0 04 08 07 11 00 00  48 b0 04 08 07 12 00 00   |D.......H.......|
0x80486f4:   4c b0 04 08 07 13 00 00  50 b0 04 08 07 15 00 00   |L.......P.......|
0x8048704:   54 b0 04 08 07 16 00 00  58 b0 04 08 07 17 00 00   |T.......X.......|
0x8048714:   5c b0 04 08 07 18 00 00  60 b0 04 08 07 1a 00 00   |\.......`.......|
0x8048724:   64 b0 04 08 07 1b 00 00  68 b0 04 08 07 1c 00 00   |d.......h.......|
0x8048734:   6c b0 04 08 07 1d 00 00  70 b0 04 08 07 1e 00 00   |l.......p.......|
; section: .rodata
0x80498a0:   03 00 00 00 01 00 02 00  00 00 00 00 00 00 00 00   |................|
0x80498b0:   00 00 00 00 00 00 00 00  00 00 00 00 00 00 00 00   |................|
0x80498c0:   57 51 47 50 22 45 41 56  44 5d 4b 46 33 32 56 5d   |WQGP"EAVD]KF32V]|   "WQGP\"EAVD]KF32V]'q\"EAVD]KF32V]'q\"EAVD]KF32V]'q\"8EAVD]KF32V]'q\bLKAI\"EAVD]KF32V]'q\b"
0x80498d0:   27 71 22 45 41 56 44 5d  4b 46 33 32 56 5d 27 71   |'q"EAVD]KF32V]'q|
0x80498e0:   22 45 41 56 44 5d 4b 46  33 32 56 5d 27 71 22 38   |"EAVD]KF32V]'q"8|
0x80498f0:   45 41 56 44 5d 4b 46 33  32 56 5d 27 71 08 4c 4b   |EAVD]KF32V]'q.LK|
0x8049900:   41 49 22 45 41 56 44 5d  4b 46 33 32 56 5d 27 71   |AI"EAVD]KF32V]'q|
0x8049910:   08 00                                              |..              |
0x8049912:   00 00 00 00 00 00 00 00  00 00 00 00 00 00 35 30   |..............50|
0x8049922:   36 31 5f 5c 18 0d 06 0f  17 10 11 1c 0b 19 75 2f   |61_\..........u/|
0x8049932:   2d 36 29 32 2c 38 5f 5c  18 0d 06 0f 17 10 11 1c   |-6)2,8_\........|
0x8049942:   0b 19 5f 45 36 5f 3e 32  5f 3e 31 5f 36 3b 4e 4f   |.._E6_>2_>1_6;NO|
0x8049952:   2b 5f 28 37 30 5f 2d 2a  31 2c 5f 3d 36 31 3e 2d   |+_(70_-*1,_=61>-|
0x8049962:   36 3a 2c 5f 38 36 29 3a  31 5f 2b 30 5f 32 3a 5f   |6:,_86):1_+0_2:_|
0x8049972:   36 31 3b 36 2c 3c 2d 36  32 36 31 3e 2b 3a 33 26   |61;6,<-6261>+:3&|
0x8049982:   5e 5f 32 30 3c 34 5f 32  3a 3a 3a                  |^_20<4_2:::     |
0x804998d:   5e 5e 5e 75 00                                     |^^^u.           |   "^^^u"
0x8049992:   00 00                                              |..              |
0x8049994:   3d 3d 3d 3d 3d 3d 3d 3d  3d 3d 3d 3d 3d 3d 3d 3d   |================|   "================================================================\n                            LEVEL %02d                              \n================================================================\nEnter secret code: "
0x80499a4:   3d 3d 3d 3d 3d 3d 3d 3d  3d 3d 3d 3d 3d 3d 3d 3d   |================|
0x80499b4:   3d 3d 3d 3d 3d 3d 3d 3d  3d 3d 3d 3d 3d 3d 3d 3d   |================|
0x80499c4:   3d 3d 3d 3d 3d 3d 3d 3d  3d 3d 3d 3d 3d 3d 3d 3d   |================|
0x80499d4:   0a 20 20 20 20 20 20 20  20 20 20 20 20 20 20 20   |.               |
0x80499e4:   20 20 20 20 20 20 20 20  20 20 20 20 20 4c 45 56   |             LEV|
0x80499f4:   45 4c 20 25 30 32 64 20  20 20 20 20 20 20 20 20   |EL %02d         |
0x8049a04:   20 20 20 20 20 20 20 20  20 20 20 20 20 20 20 20   |                |
0x8049a14:   20 20 20 20 20 0a 3d 3d  3d 3d 3d 3d 3d 3d 3d 3d   |     .==========|
0x8049a24:   3d 3d 3d 3d 3d 3d 3d 3d  3d 3d 3d 3d 3d 3d 3d 3d   |================|
0x8049a34:   3d 3d 3d 3d 3d 3d 3d 3d  3d 3d 3d 3d 3d 3d 3d 3d   |================|
0x8049a44:   3d 3d 3d 3d 3d 3d 3d 3d  3d 3d 3d 3d 3d 3d 3d 3d   |================|
0x8049a54:   3d 3d 3d 3d 3d 3d 0a 45  6e 74 65 72 20 73 65 63   |======.Enter sec|
0x8049a64:   72 65 74 20 63 6f 64 65  3a 20 00                  |ret code: .     |
0x8049a6f:   37 68 31 35 20 31 35 20  34 20 68 31 64 64 33 6e   |7h15 15 4 h1dd3n|   "7h15 15 4 h1dd3n 57r1n6"
0x8049a7f:   20 35 37 72 31 6e 36 00                            | 57r1n6.        |
0x8049a87:   0a 00 00 00 00 00 00 00  00 00 00 00 00 00 00 00   |................|
0x8049a97:   00 00 00 00 00 00 00 00  00 4e 00 00 00 cc ff ff   |.........N......|
0x8049aa7:   ff 6e 00 00 00 cc ff ff  ff 4e 00 00 00 ac ff ff   |.n.......N......|
0x8049ab7:   ff cc ff ff ff 04 00 00  00 cc ff ff ff 76 00 00   |.............v..|
0x8049ac7:   00 6c 00 00 00 8c ff ff  ff 76 00 00 00 cc ff ff   |.l.......v......|
0x8049ad7:   ff cc ff ff ff 4e 00 00  00 ac ff ff ff            |.....N.......   |
0x8049ae4:   47 44 42 20 49 53 20 4e  4f 54 20 41 4c 4c 4f 57   |GDB IS NOT ALLOW|   "GDB IS NOT ALLOWED!"
0x8049af4:   45 44 21 00                                        |ED!.            |
0x8049af8:   25 64 20 25 64 20 25 64  20 25 64 20 25 64 20 25   |%d %d %d %d %d %|   "%d %d %d %d %d %d %d %d %d %d %d %d"
0x8049b08:   64 20 25 64 20 25 64 20  25 64 20 25 64 20 25 64   |d %d %d %d %d %d|
0x8049b18:   20 25 64 00                                        | %d.            |
0x8049b1c:   25 66 20 25 66 20 25 66  20 25 66 20 25 66 00      |%f %f %f %f %f. |   "%f %f %f %f %f"
0x8049b2b:   25 64 20 25 64 0a 00                               |%d %d..         |   "%d %d\n"
0x8049b32:   47 43 54 46 7b 46 4c 41  47 5f 4f 4e 45 7d 00      |GCTF{FLAG_ONE}. |   "GCTF{FLAG_ONE}"
0x8049b41:   47 43 54 46 7b 46 4c 41  47 5f 54 57 4f 7d 00      |GCTF{FLAG_TWO}. |   "GCTF{FLAG_TWO}"
0x8049b50:   47 43 54 46 7b 46 4c 41  47 5f 54 48 52 45 45 7d   |GCTF{FLAG_THREE}|   "GCTF{FLAG_THREE}"
0x8049b60:   00                                                 |.               |
0x8049b61:   47 43 54 46 7b 46 4c 41  47 5f 46 4f 55 52 7d 00   |GCTF{FLAG_FOUR}.|   "GCTF{FLAG_FOUR}"
0x8049b71:   47 43 54 46 7b 46 4c 41  47 5f 46 49 56 45 7d 00   |GCTF{FLAG_FIVE}.|   "GCTF{FLAG_FIVE}"
0x8049b81:   47 43 54 46 7b 46 4c 41  47 5f 42 4f 4e 55 53 7d   |GCTF{FLAG_BONUS}|   "GCTF{FLAG_BONUS}"
0x8049b91:   00                                                 |.               |
0x8049b92:   79 30 75 20 34 72 33 6e  27 37 20 36 30 30 64 20   |y0u 4r3n'7 600d |   "y0u 4r3n'7 600d 3n0u6h!"
0x8049ba2:   33 6e 30 75 36 68 21 00                            |3n0u6h!.        |
0x8049baa:   00 00 00 00 c0 3f 00 00  00 3f                     |.....?...?      |
; section: .eh_frame_hdr
0x8049bb4:   01 1b 03 3b 90 00 00 00  11 00 00 00 bc eb ff ff   |...;............|
0x8049bc4:   ac 00 00 00 77 ee ff ff  d0 00 00 00 e6 ee ff ff   |....w...........|
0x8049bd4:   f0 00 00 00 36 ef ff ff  10 01 00 00 c4 f3 ff ff   |....6...........|
0x8049be4:   40 01 00 00 fe f3 ff ff  60 01 00 00 8e f4 ff ff   |@.......`.......|
0x8049bf4:   80 01 00 00 46 f5 ff ff  a0 01 00 00 c6 f5 ff ff   |....F...........|
0x8049c04:   c0 01 00 00 b0 f6 ff ff  ec 01 00 00 f8 f6 ff ff   |................|
0x8049c14:   0c 02 00 00 3b f8 ff ff  2c 02 00 00 2c f9 ff ff   |....;...,...,...|
0x8049c24:   4c 02 00 00 97 fa ff ff  70 02 00 00 5f fb ff ff   |L.......p..._...|
0x8049c34:   90 02 00 00 5c fc ff ff  bc 02 00 00 bc fc ff ff   |....\...........|
0x8049c44:   08 03 00 00                                        |....            |
; section: .eh_frame
0x8049c48:   14 00 00 00 00 00 00 00  01 7a 52 00 01 7c 08 01   |.........zR..|..|
0x8049c58:   1b 0c 04 04 88 01 00 00  20 00 00 00 1c 00 00 00   |........ .......|
0x8049c68:   08 eb ff ff b0 01 00 00  00 0e 08 46 0e 0c 4a 0f   |...........F..J.|
0x8049c78:   0b 74 04 78 00 3f 1a 3b  2a 32 24 22 1c 00 00 00   |.t.x.?.;*2$"....|
0x8049c88:   40 00 00 00 9f ed ff ff  6f 00 00 00 00 41 0e 08   |@.......o....A..|
0x8049c98:   85 02 42 0d 05 02 6b c5  0c 04 04 00 1c 00 00 00   |..B...k.........|
0x8049ca8:   60 00 00 00 ee ed ff ff  50 00 00 00 00 41 0e 08   |`.......P....A..|
0x8049cb8:   85 02 42 0d 05 02 4c c5  0c 04 04 00 2c 00 00 00   |..B...L.....,...|
0x8049cc8:   80 00 00 00 1e ee ff ff  8e 04 00 00 00 41 0e 08   |.............A..|
0x8049cd8:   85 02 42 0d 05 49 87 03  86 04 83 05 03 7e 04 c3   |..B..I.......~..|
0x8049ce8:   41 c6 41 c7 41 c5 0c 04  04 00 00 00 1c 00 00 00   |A.A.A...........|
0x8049cf8:   b0 00 00 00 7c f2 ff ff  3a 00 00 00 00 41 0e 08   |....|...:....A..|
0x8049d08:   85 02 42 0d 05 76 c5 0c  04 04 00 00 1c 00 00 00   |..B..v..........|
0x8049d18:   d0 00 00 00 96 f2 ff ff  90 00 00 00 00 41 0e 08   |.............A..|
0x8049d28:   85 02 42 0d 05 02 8c c5  0c 04 04 00 1c 00 00 00   |..B.............|
0x8049d38:   f0 00 00 00 06 f3 ff ff  b8 00 00 00 00 41 0e 08   |.............A..|
0x8049d48:   85 02 42 0d 05 02 b4 c5  0c 04 04 00 1c 00 00 00   |..B.............|
0x8049d58:   10 01 00 00 9e f3 ff ff  80 00 00 00 00 41 0e 08   |.............A..|
0x8049d68:   85 02 42 0d 05 02 7c c5  0c 04 04 00 28 00 00 00   |..B...|.....(...|
0x8049d78:   30 01 00 00 fe f3 ff ff  ea 00 00 00 00 41 0e 08   |0............A..|
0x8049d88:   85 02 42 0d 05 46 87 03  86 04 83 05 02 dd c3 41   |..B..F.........A|
0x8049d98:   c6 41 c7 41 c5 0c 04 04  1c 00 00 00 5c 01 00 00   |.A.A........\...|
0x8049da8:   bc f4 ff ff 48 00 00 00  00 41 0e 08 85 02 42 0d   |....H....A....B.|
0x8049db8:   05 02 44 c5 0c 04 04 00  1c 00 00 00 7c 01 00 00   |..D.........|...|
0x8049dc8:   e4 f4 ff ff 43 01 00 00  00 41 0e 08 85 02 42 0d   |....C....A....B.|
0x8049dd8:   05 03 3f 01 c5 0c 04 04  1c 00 00 00 9c 01 00 00   |..?.............|
0x8049de8:   07 f6 ff ff f1 00 00 00  00 41 0e 08 85 02 42 0d   |.........A....B.|
0x8049df8:   05 02 ed c5 0c 04 04 00  20 00 00 00 bc 01 00 00   |........ .......|
0x8049e08:   d8 f6 ff ff 6b 01 00 00  00 41 0e 08 85 02 42 0d   |....k....A....B.|
0x8049e18:   05 44 83 03 03 63 01 c5  c3 0c 04 04 1c 00 00 00   |.D...c..........|
0x8049e28:   e0 01 00 00 1f f8 ff ff  c8 00 00 00 00 41 0e 08   |.............A..|
0x8049e38:   85 02 42 0d 05 02 c4 c5  0c 04 04 00 28 00 00 00   |..B.........(...|
0x8049e48:   00 02 00 00 c7 f8 ff ff  f7 00 00 00 00 44 0c 01   |.............D..|
0x8049e58:   00 47 10 05 02 75 00 43  0f 03 75 7c 06 02 e4 0c   |.G...u.C..u|....|
0x8049e68:   01 00 41 c5 43 0c 04 04  48 00 00 00 2c 02 00 00   |..A.C...H...,...|
0x8049e78:   98 f9 ff ff 5d 00 00 00  00 41 0e 08 85 02 41 0e   |....]....A....A.|
0x8049e88:   0c 87 03 41 0e 10 86 04  41 0e 14 83 05 4e 0e 20   |...A....A....N. |
0x8049e98:   69 0e 24 44 0e 28 44 0e  2c 41 0e 30 4d 0e 20 47   |i.$D.(D.,A.0M. G|
0x8049ea8:   0e 14 41 c3 0e 10 41 c6  0e 0c 41 c7 0e 08 41 c5   |..A...A...A...A.|
0x8049eb8:   0e 04 00 00 10 00 00 00  78 02 00 00 ac f9 ff ff   |........x.......|
0x8049ec8:   02 00 00 00 00 00 00 00  00 00 00 00               |............    |
; section: .init_array
0x804aef4:   00 8a 04 08 78 8f 04 08                            |....x...        |
; section: .fini_array
0x804aefc:   e0 89 04 08                                        |....            |
; section: .jcr
0x804af00:   00 00 00 00                                        |....            |
; section: .dynamic
0x804af04:   01 00 00 00 01 00 00 00  01 00 00 00 6a 00 00 00   |............j...|
0x804af14:   01 00 00 00 9b 00 00 00  0c 00 00 00 44 87 04 08   |............D...|
0x804af24:   0d 00 00 00 74 98 04 08  19 00 00 00 f4 ae 04 08   |....t...........|
0x804af34:   1b 00 00 00 08 00 00 00  1a 00 00 00 fc ae 04 08   |................|
0x804af44:   1c 00 00 00 04 00 00 00  f5 fe ff 6f ac 81 04 08   |...........o....|
0x804af54:   05 00 00 00 f8 83 04 08  06 00 00 00 d8 81 04 08   |................|
0x804af64:   0a 00 00 00 8e 01 00 00  0b 00 00 00 10 00 00 00   |................|
0x804af74:   15 00 00 00 00 00 00 00  03 00 00 00 00 b0 04 08   |................|
0x804af84:   02 00 00 00 d0 00 00 00  14 00 00 00 11 00 00 00   |................|
0x804af94:   17 00 00 00 74 86 04 08  11 00 00 00 5c 86 04 08   |....t.......\...|
0x804afa4:   12 00 00 00 18 00 00 00  13 00 00 00 08 00 00 00   |................|
0x804afb4:   fe ff ff 6f cc 85 04 08  ff ff ff 6f 03 00 00 00   |...o.......o....|
0x804afc4:   f0 ff ff 6f 86 85 04 08  00 00 00 00 00 00 00 00   |...o............|
0x804afd4:   00 00 00 00 00 00 00 00  00 00 00 00 00 00 00 00   |................|
0x804afe4:   00 00 00 00 00 00 00 00  00 00 00 00 00 00 00 00   |................|
0x804aff4:   00 00 00 00 00 00 00 00                            |........        |
; section: .got
0x804affc:   00 00 00 00                                        |....            |
; section: .got.plt
0x804b000:   04 af 04 08 00 00 00 00  00 00 00 00 86 87 04 08   |................|
0x804b010:   96 87 04 08 a6 87 04 08  b6 87 04 08 c6 87 04 08   |................|
0x804b020:   d6 87 04 08 e6 87 04 08  f6 87 04 08 06 88 04 08   |................|
0x804b030:   16 88 04 08 26 88 04 08  36 88 04 08 46 88 04 08   |....&...6...F...|
0x804b040:   56 88 04 08 66 88 04 08  76 88 04 08 86 88 04 08   |V...f...v.......|
0x804b050:   96 88 04 08 a6 88 04 08  b6 88 04 08 c6 88 04 08   |................|
0x804b060:   d6 88 04 08 e6 88 04 08  f6 88 04 08 06 89 04 08   |................|
0x804b070:   16 89 04 08                                        |....            |
; section: .data
0x804b074:   00 00 00 00 00 00 00 00  94 99 04 08               |............    |
